(dp1
S'output'
p2
S"<type 'exceptions.AttributeError'> 'module' object has no attribute 'tt'"
p3
sS'layer'
p4
S'D:\\github-develop\\web2py\\applications\\myapp\\controllers/default.py'
p5
sS'code'
p6
S'# -*- coding: utf-8 -*-\n# this file is released under public domain and you can use without limitations\n\n#########################################################################\n## This is a samples controller\n## - index is the default action of any application\n## - user is required for authentication and authorization\n## - download is for downloading files uploaded in the db (does streaming)\n## - call exposes all registered services (none by default)\n#########################################################################\n\nimport test\ndef index():\n    return "Your ip is " + test.tt\n    \n\'\'\'def index():\n    """\n    example action using the internationalization operator T and flash\n    rendered by views/default/index.html or views/generic.html\n\n    if you need a simple wiki simple replace the two lines below with:\n    return auth.wiki()\n    """\n    return dict(message="Hello from MyApp")\'\'\'\n\n\ndef user():\n    """\n    exposes:\n    http://..../[app]/default/user/login\n    http://..../[app]/default/user/logout\n    http://..../[app]/default/user/register\n    http://..../[app]/default/user/profile\n    http://..../[app]/default/user/retrieve_password\n    http://..../[app]/default/user/change_password\n    use @auth.requires_login()\n        @auth.requires_membership(\'group name\')\n        @auth.requires_permission(\'read\',\'table name\',record_id)\n    to decorate functions that need access control\n    """\n    return dict(form=auth())\n\n\ndef download():\n    """\n    allows downloading of uploaded files\n    http://..../[app]/default/download/[filename]\n    """\n    return response.download(request, db)\n\n\ndef call():\n    """\n    exposes services. for example:\n    http://..../[app]/default/call/jsonrpc\n    decorate with @services.jsonrpc the functions to expose\n    supports xml, json, xmlrpc, jsonrpc, amfrpc, rss, csv\n    """\n    return service()\n\n\n@auth.requires_signature()\ndef data():\n    """\n    http://..../[app]/default/data/tables\n    http://..../[app]/default/data/create/[table]\n    http://..../[app]/default/data/read/[table]/[id]\n    http://..../[app]/default/data/update/[table]/[id]\n    http://..../[app]/default/data/delete/[table]/[id]\n    http://..../[app]/default/data/select/[table]\n    http://..../[app]/default/data/search/[table]\n    but URLs must be signed, i.e. linked with\n      A(\'table\',_href=URL(\'data/tables\',user_signature=True))\n    or with the signed load operator\n      LOAD(\'default\',\'data.load\',args=\'tables\',ajax=True,user_signature=True)\n    """\n    return dict(form=crud())\n\nresponse._vars=response._caller(index)\n'
p7
sS'snapshot'
p8
(dp9
S'exception'
p10
(dp11
S'__hash__'
p12
S"<method-wrapper '__hash__' of exceptions.AttributeError object>"
p13
sS'__setattr__'
p14
S"<method-wrapper '__setattr__' of exceptions.AttributeError object>"
p15
sS'__reduce_ex__'
p16
S'<built-in method __reduce_ex__ of exceptions.AttributeError object>'
p17
sS'__getslice__'
p18
S"<method-wrapper '__getslice__' of exceptions.AttributeError object>"
p19
sS'__getitem__'
p20
S"<method-wrapper '__getitem__' of exceptions.AttributeError object>"
p21
sS'__setstate__'
p22
S'<built-in method __setstate__ of exceptions.AttributeError object>'
p23
sS'__reduce__'
p24
S'<built-in method __reduce__ of exceptions.AttributeError object>'
p25
sS'__str__'
p26
S"<method-wrapper '__str__' of exceptions.AttributeError object>"
p27
sS'__format__'
p28
S'<built-in method __format__ of exceptions.AttributeError object>'
p29
sS'__getattribute__'
p30
S"<method-wrapper '__getattribute__' of exceptions.AttributeError object>"
p31
sS'__class__'
p32
S"<type 'exceptions.AttributeError'>"
p33
sS'__unicode__'
p34
S'<built-in method __unicode__ of exceptions.AttributeError object>'
p35
sS'__delattr__'
p36
S"<method-wrapper '__delattr__' of exceptions.AttributeError object>"
p37
sS'__subclasshook__'
p38
S'<built-in method __subclasshook__ of type object>'
p39
sS'__repr__'
p40
S"<method-wrapper '__repr__' of exceptions.AttributeError object>"
p41
sS'args'
p42
S'("\'module\' object has no attribute \'tt\'",)'
p43
sS'__dict__'
p44
S'{}'
p45
sS'__sizeof__'
p46
S'<built-in method __sizeof__ of exceptions.AttributeError object>'
p47
sS'__doc__'
p48
S"'Attribute not found.'"
p49
sS'__init__'
p50
S"<method-wrapper '__init__' of exceptions.AttributeError object>"
p51
sS'__new__'
p52
S'<built-in method __new__ of type object>'
p53
ssS'evalue'
p54
S"'module' object has no attribute 'tt'"
p55
sS'request'
p56
ccopy_reg
_reconstructor
p57
(cgluon.html
BEAUTIFY
p58
c__builtin__
object
p59
NtRp60
(dp61
S'attributes'
p62
(dp63
sS'components'
p64
(lp65
g57
(cgluon.html
TABLE
p66
g59
NtRp67
(dp68
g62
(dp69
S'level'
p70
I5
ssS'parent'
p71
Nsg64
(lp72
g57
(cgluon.html
TR
p73
g59
NtRp74
(dp75
g62
(dp76
sg71
g67
sg64
(lp77
g57
(cgluon.html
TD
p78
g59
NtRp79
(dp80
g62
(dp81
S'_style'
p82
S'font-weight:bold;vertical-align:top'
p83
ssg71
g74
sg64
(lp84
S'ajax'
p85
asbag57
(g78
g59
NtRp86
(dp87
g62
(dp88
S'_valign'
p89
S'top'
p90
ssg71
g74
sg64
(lp91
S':'
asbag57
(g78
g59
NtRp92
(dp93
g62
(dp94
sg71
g74
sg64
(lp95
g57
(g58
g59
NtRp96
(dp97
g62
(dp98
g70
I5
ssg71
g92
sg64
(lp99
S'False'
p100
asbasbasbag57
(g73
g59
NtRp101
(dp102
g62
(dp103
sg71
g67
sg64
(lp104
g57
(g78
g59
NtRp105
(dp106
g62
(dp107
g82
g83
ssg71
g101
sg64
(lp108
S'application'
p109
asbag57
(g78
g59
NtRp110
(dp111
g62
(dp112
g89
g90
ssg71
g101
sg64
(lp113
S':'
asbag57
(g78
g59
NtRp114
(dp115
g62
(dp116
sg71
g101
sg64
(lp117
g57
(g58
g59
NtRp118
(dp119
g62
(dp120
g70
I5
ssg71
g114
sg64
(lp121
S'myapp'
p122
asbasbasbag57
(g73
g59
NtRp123
(dp124
g62
(dp125
sg71
g67
sg64
(lp126
g57
(g78
g59
NtRp127
(dp128
g62
(dp129
g82
g83
ssg71
g123
sg64
(lp130
g42
asbag57
(g78
g59
NtRp131
(dp132
g62
(dp133
g89
g90
ssg71
g123
sg64
(lp134
S':'
asbag57
(g78
g59
NtRp135
(dp136
g62
(dp137
sg71
g123
sg64
(lp138
g57
(g58
g59
NtRp139
(dp140
g62
(dp141
g70
I5
ssg71
g135
sg64
(lp142
g57
(g66
g59
NtRp143
(dp144
g62
(dp145
g70
I4
ssg71
Nsg64
(lp146
sbasbasbasbag57
(g73
g59
NtRp147
(dp148
g62
(dp149
sg71
g67
sg64
(lp150
g57
(g78
g59
NtRp151
(dp152
g62
(dp153
g82
g83
ssg71
g147
sg64
(lp154
S'body'
p155
asbag57
(g78
g59
NtRp156
(dp157
g62
(dp158
g89
g90
ssg71
g147
sg64
(lp159
S':'
asbag57
(g78
g59
NtRp160
(dp161
g62
(dp162
sg71
g147
sg64
(lp163
g57
(g58
g59
NtRp164
(dp165
g62
(dp166
g70
I5
ssg71
g160
sg64
(lp167
S'<cStringIO.StringO object at 0x09DD5DC0>'
p168
asbasbasbag57
(g73
g59
NtRp169
(dp170
g62
(dp171
sg71
g67
sg64
(lp172
g57
(g78
g59
NtRp173
(dp174
g62
(dp175
g82
g83
ssg71
g169
sg64
(lp176
S'cid'
p177
asbag57
(g78
g59
NtRp178
(dp179
g62
(dp180
g89
g90
ssg71
g169
sg64
(lp181
S':'
asbag57
(g78
g59
NtRp182
(dp183
g62
(dp184
sg71
g169
sg64
(lp185
g57
(g58
g59
NtRp186
(dp187
g62
(dp188
g70
I5
ssg71
g182
sg64
(lp189
S'None'
p190
asbasbasbag57
(g73
g59
NtRp191
(dp192
g62
(dp193
sg71
g67
sg64
(lp194
g57
(g78
g59
NtRp195
(dp196
g62
(dp197
g82
g83
ssg71
g191
sg64
(lp198
S'client'
p199
asbag57
(g78
g59
NtRp200
(dp201
g62
(dp202
g89
g90
ssg71
g191
sg64
(lp203
S':'
asbag57
(g78
g59
NtRp204
(dp205
g62
(dp206
sg71
g191
sg64
(lp207
g57
(g58
g59
NtRp208
(dp209
g62
(dp210
g70
I5
ssg71
g204
sg64
(lp211
S'127.0.0.1'
p212
asbasbasbag57
(g73
g59
NtRp213
(dp214
g62
(dp215
sg71
g67
sg64
(lp216
g57
(g78
g59
NtRp217
(dp218
g62
(dp219
g82
g83
ssg71
g213
sg64
(lp220
S'controller'
p221
asbag57
(g78
g59
NtRp222
(dp223
g62
(dp224
g89
g90
ssg71
g213
sg64
(lp225
S':'
asbag57
(g78
g59
NtRp226
(dp227
g62
(dp228
sg71
g213
sg64
(lp229
g57
(g58
g59
NtRp230
(dp231
g62
(dp232
g70
I5
ssg71
g226
sg64
(lp233
S'default'
p234
asbasbasbag57
(g73
g59
NtRp235
(dp236
g62
(dp237
sg71
g67
sg64
(lp238
g57
(g78
g59
NtRp239
(dp240
g62
(dp241
g82
g83
ssg71
g235
sg64
(lp242
S'cookies'
p243
asbag57
(g78
g59
NtRp244
(dp245
g62
(dp246
g89
g90
ssg71
g235
sg64
(lp247
S':'
asbag57
(g78
g59
NtRp248
(dp249
g62
(dp250
sg71
g235
sg64
(lp251
g57
(g58
g59
NtRp252
(dp253
g62
(dp254
g70
I5
ssg71
g248
sg64
(lp255
g57
(g66
g59
NtRp256
(dp257
g62
(dp258
g70
I4
ssg71
Nsg64
(lp259
g57
(g73
g59
NtRp260
(dp261
g62
(dp262
sg71
g256
sg64
(lp263
g57
(g78
g59
NtRp264
(dp265
g62
(dp266
g82
g83
ssg71
g260
sg64
(lp267
S'session_id_admin'
p268
asbag57
(g78
g59
NtRp269
(dp270
g62
(dp271
g89
g90
ssg71
g260
sg64
(lp272
S':'
asbag57
(g78
g59
NtRp273
(dp274
g62
(dp275
sg71
g260
sg64
(lp276
g57
(g58
g59
NtRp277
(dp278
g62
(dp279
g70
I4
ssg71
g273
sg64
(lp280
S'127.0.0.1-0632ed9b-c315-4ad5-b7b2-fec3238a1346'
p281
ag57
(g66
g59
NtRp282
(dp283
g62
(dp284
g70
I3
ssg71
Nsg64
(lp285
g57
(g73
g59
NtRp286
(dp287
g62
(dp288
sg71
g282
sg64
(lp289
g57
(g78
g59
NtRp290
(dp291
g62
(dp292
g82
g83
ssg71
g286
sg64
(lp293
S'comment'
p294
asbag57
(g78
g59
NtRp295
(dp296
g62
(dp297
g89
g90
ssg71
g286
sg64
(lp298
S':'
asbag57
(g78
g59
NtRp299
(dp300
g62
(dp301
sg71
g286
sg64
(lp302
g57
(g58
g59
NtRp303
(dp304
g62
(dp305
g70
I3
ssg71
g299
sg64
(lp306
S''
asbasbasbag57
(g73
g59
NtRp307
(dp308
g62
(dp309
sg71
g282
sg64
(lp310
g57
(g78
g59
NtRp311
(dp312
g62
(dp313
g82
g83
ssg71
g307
sg64
(lp314
S'domain'
p315
asbag57
(g78
g59
NtRp316
(dp317
g62
(dp318
g89
g90
ssg71
g307
sg64
(lp319
S':'
asbag57
(g78
g59
NtRp320
(dp321
g62
(dp322
sg71
g307
sg64
(lp323
g57
(g58
g59
NtRp324
(dp325
g62
(dp326
g70
I3
ssg71
g320
sg64
(lp327
S''
asbasbasbag57
(g73
g59
NtRp328
(dp329
g62
(dp330
sg71
g282
sg64
(lp331
g57
(g78
g59
NtRp332
(dp333
g62
(dp334
g82
g83
ssg71
g328
sg64
(lp335
S'expires'
p336
asbag57
(g78
g59
NtRp337
(dp338
g62
(dp339
g89
g90
ssg71
g328
sg64
(lp340
S':'
asbag57
(g78
g59
NtRp341
(dp342
g62
(dp343
sg71
g328
sg64
(lp344
g57
(g58
g59
NtRp345
(dp346
g62
(dp347
g70
I3
ssg71
g341
sg64
(lp348
S''
asbasbasbag57
(g73
g59
NtRp349
(dp350
g62
(dp351
sg71
g282
sg64
(lp352
g57
(g78
g59
NtRp353
(dp354
g62
(dp355
g82
g83
ssg71
g349
sg64
(lp356
S'httponly'
p357
asbag57
(g78
g59
NtRp358
(dp359
g62
(dp360
g89
g90
ssg71
g349
sg64
(lp361
S':'
asbag57
(g78
g59
NtRp362
(dp363
g62
(dp364
sg71
g349
sg64
(lp365
g57
(g58
g59
NtRp366
(dp367
g62
(dp368
g70
I3
ssg71
g362
sg64
(lp369
S''
asbasbasbag57
(g73
g59
NtRp370
(dp371
g62
(dp372
sg71
g282
sg64
(lp373
g57
(g78
g59
NtRp374
(dp375
g62
(dp376
g82
g83
ssg71
g370
sg64
(lp377
S'max-age'
p378
asbag57
(g78
g59
NtRp379
(dp380
g62
(dp381
g89
g90
ssg71
g370
sg64
(lp382
S':'
asbag57
(g78
g59
NtRp383
(dp384
g62
(dp385
sg71
g370
sg64
(lp386
g57
(g58
g59
NtRp387
(dp388
g62
(dp389
g70
I3
ssg71
g383
sg64
(lp390
S''
asbasbasbag57
(g73
g59
NtRp391
(dp392
g62
(dp393
sg71
g282
sg64
(lp394
g57
(g78
g59
NtRp395
(dp396
g62
(dp397
g82
g83
ssg71
g391
sg64
(lp398
S'path'
p399
asbag57
(g78
g59
NtRp400
(dp401
g62
(dp402
g89
g90
ssg71
g391
sg64
(lp403
S':'
asbag57
(g78
g59
NtRp404
(dp405
g62
(dp406
sg71
g391
sg64
(lp407
g57
(g58
g59
NtRp408
(dp409
g62
(dp410
g70
I3
ssg71
g404
sg64
(lp411
S''
asbasbasbag57
(g73
g59
NtRp412
(dp413
g62
(dp414
sg71
g282
sg64
(lp415
g57
(g78
g59
NtRp416
(dp417
g62
(dp418
g82
g83
ssg71
g412
sg64
(lp419
S'secure'
p420
asbag57
(g78
g59
NtRp421
(dp422
g62
(dp423
g89
g90
ssg71
g412
sg64
(lp424
S':'
asbag57
(g78
g59
NtRp425
(dp426
g62
(dp427
sg71
g412
sg64
(lp428
g57
(g58
g59
NtRp429
(dp430
g62
(dp431
g70
I3
ssg71
g425
sg64
(lp432
S''
asbasbasbag57
(g73
g59
NtRp433
(dp434
g62
(dp435
sg71
g282
sg64
(lp436
g57
(g78
g59
NtRp437
(dp438
g62
(dp439
g82
g83
ssg71
g433
sg64
(lp440
S'version'
p441
asbag57
(g78
g59
NtRp442
(dp443
g62
(dp444
g89
g90
ssg71
g433
sg64
(lp445
S':'
asbag57
(g78
g59
NtRp446
(dp447
g62
(dp448
sg71
g433
sg64
(lp449
g57
(g58
g59
NtRp450
(dp451
g62
(dp452
g70
I3
ssg71
g446
sg64
(lp453
S''
asbasbasbasbasbasbasbag57
(g73
g59
NtRp454
(dp455
g62
(dp456
sg71
g256
sg64
(lp457
g57
(g78
g59
NtRp458
(dp459
g62
(dp460
g82
g83
ssg71
g454
sg64
(lp461
S'session_id_myapp'
p462
asbag57
(g78
g59
NtRp463
(dp464
g62
(dp465
g89
g90
ssg71
g454
sg64
(lp466
S':'
asbag57
(g78
g59
NtRp467
(dp468
g62
(dp469
sg71
g454
sg64
(lp470
g57
(g58
g59
NtRp471
(dp472
g62
(dp473
g70
I4
ssg71
g467
sg64
(lp474
S'127.0.0.1-c0952a33-5ab0-41a8-a77e-f43f0e5bde89'
p475
ag57
(g66
g59
NtRp476
(dp477
g62
(dp478
g70
I3
ssg71
Nsg64
(lp479
g57
(g73
g59
NtRp480
(dp481
g62
(dp482
sg71
g476
sg64
(lp483
g57
(g78
g59
NtRp484
(dp485
g62
(dp486
g82
g83
ssg71
g480
sg64
(lp487
g294
asbag57
(g78
g59
NtRp488
(dp489
g62
(dp490
g89
g90
ssg71
g480
sg64
(lp491
S':'
asbag57
(g78
g59
NtRp492
(dp493
g62
(dp494
sg71
g480
sg64
(lp495
g57
(g58
g59
NtRp496
(dp497
g62
(dp498
g70
I3
ssg71
g492
sg64
(lp499
S''
asbasbasbag57
(g73
g59
NtRp500
(dp501
g62
(dp502
sg71
g476
sg64
(lp503
g57
(g78
g59
NtRp504
(dp505
g62
(dp506
g82
g83
ssg71
g500
sg64
(lp507
g315
asbag57
(g78
g59
NtRp508
(dp509
g62
(dp510
g89
g90
ssg71
g500
sg64
(lp511
S':'
asbag57
(g78
g59
NtRp512
(dp513
g62
(dp514
sg71
g500
sg64
(lp515
g57
(g58
g59
NtRp516
(dp517
g62
(dp518
g70
I3
ssg71
g512
sg64
(lp519
S''
asbasbasbag57
(g73
g59
NtRp520
(dp521
g62
(dp522
sg71
g476
sg64
(lp523
g57
(g78
g59
NtRp524
(dp525
g62
(dp526
g82
g83
ssg71
g520
sg64
(lp527
g336
asbag57
(g78
g59
NtRp528
(dp529
g62
(dp530
g89
g90
ssg71
g520
sg64
(lp531
S':'
asbag57
(g78
g59
NtRp532
(dp533
g62
(dp534
sg71
g520
sg64
(lp535
g57
(g58
g59
NtRp536
(dp537
g62
(dp538
g70
I3
ssg71
g532
sg64
(lp539
S''
asbasbasbag57
(g73
g59
NtRp540
(dp541
g62
(dp542
sg71
g476
sg64
(lp543
g57
(g78
g59
NtRp544
(dp545
g62
(dp546
g82
g83
ssg71
g540
sg64
(lp547
g357
asbag57
(g78
g59
NtRp548
(dp549
g62
(dp550
g89
g90
ssg71
g540
sg64
(lp551
S':'
asbag57
(g78
g59
NtRp552
(dp553
g62
(dp554
sg71
g540
sg64
(lp555
g57
(g58
g59
NtRp556
(dp557
g62
(dp558
g70
I3
ssg71
g552
sg64
(lp559
S''
asbasbasbag57
(g73
g59
NtRp560
(dp561
g62
(dp562
sg71
g476
sg64
(lp563
g57
(g78
g59
NtRp564
(dp565
g62
(dp566
g82
g83
ssg71
g560
sg64
(lp567
g378
asbag57
(g78
g59
NtRp568
(dp569
g62
(dp570
g89
g90
ssg71
g560
sg64
(lp571
S':'
asbag57
(g78
g59
NtRp572
(dp573
g62
(dp574
sg71
g560
sg64
(lp575
g57
(g58
g59
NtRp576
(dp577
g62
(dp578
g70
I3
ssg71
g572
sg64
(lp579
S''
asbasbasbag57
(g73
g59
NtRp580
(dp581
g62
(dp582
sg71
g476
sg64
(lp583
g57
(g78
g59
NtRp584
(dp585
g62
(dp586
g82
g83
ssg71
g580
sg64
(lp587
g399
asbag57
(g78
g59
NtRp588
(dp589
g62
(dp590
g89
g90
ssg71
g580
sg64
(lp591
S':'
asbag57
(g78
g59
NtRp592
(dp593
g62
(dp594
sg71
g580
sg64
(lp595
g57
(g58
g59
NtRp596
(dp597
g62
(dp598
g70
I3
ssg71
g592
sg64
(lp599
S''
asbasbasbag57
(g73
g59
NtRp600
(dp601
g62
(dp602
sg71
g476
sg64
(lp603
g57
(g78
g59
NtRp604
(dp605
g62
(dp606
g82
g83
ssg71
g600
sg64
(lp607
g420
asbag57
(g78
g59
NtRp608
(dp609
g62
(dp610
g89
g90
ssg71
g600
sg64
(lp611
S':'
asbag57
(g78
g59
NtRp612
(dp613
g62
(dp614
sg71
g600
sg64
(lp615
g57
(g58
g59
NtRp616
(dp617
g62
(dp618
g70
I3
ssg71
g612
sg64
(lp619
S''
asbasbasbag57
(g73
g59
NtRp620
(dp621
g62
(dp622
sg71
g476
sg64
(lp623
g57
(g78
g59
NtRp624
(dp625
g62
(dp626
g82
g83
ssg71
g620
sg64
(lp627
g441
asbag57
(g78
g59
NtRp628
(dp629
g62
(dp630
g89
g90
ssg71
g620
sg64
(lp631
S':'
asbag57
(g78
g59
NtRp632
(dp633
g62
(dp634
sg71
g620
sg64
(lp635
g57
(g58
g59
NtRp636
(dp637
g62
(dp638
g70
I3
ssg71
g632
sg64
(lp639
S''
asbasbasbasbasbasbasbag57
(g73
g59
NtRp640
(dp641
g62
(dp642
sg71
g256
sg64
(lp643
g57
(g78
g59
NtRp644
(dp645
g62
(dp646
g82
g83
ssg71
g640
sg64
(lp647
S'session_id_welcome'
p648
asbag57
(g78
g59
NtRp649
(dp650
g62
(dp651
g89
g90
ssg71
g640
sg64
(lp652
S':'
asbag57
(g78
g59
NtRp653
(dp654
g62
(dp655
sg71
g640
sg64
(lp656
g57
(g58
g59
NtRp657
(dp658
g62
(dp659
g70
I4
ssg71
g653
sg64
(lp660
S'127.0.0.1-6aa84d50-0730-4cdb-b64c-9bce7bd0e77c'
p661
ag57
(g66
g59
NtRp662
(dp663
g62
(dp664
g70
I3
ssg71
Nsg64
(lp665
g57
(g73
g59
NtRp666
(dp667
g62
(dp668
sg71
g662
sg64
(lp669
g57
(g78
g59
NtRp670
(dp671
g62
(dp672
g82
g83
ssg71
g666
sg64
(lp673
g294
asbag57
(g78
g59
NtRp674
(dp675
g62
(dp676
g89
g90
ssg71
g666
sg64
(lp677
S':'
asbag57
(g78
g59
NtRp678
(dp679
g62
(dp680
sg71
g666
sg64
(lp681
g57
(g58
g59
NtRp682
(dp683
g62
(dp684
g70
I3
ssg71
g678
sg64
(lp685
S''
asbasbasbag57
(g73
g59
NtRp686
(dp687
g62
(dp688
sg71
g662
sg64
(lp689
g57
(g78
g59
NtRp690
(dp691
g62
(dp692
g82
g83
ssg71
g686
sg64
(lp693
g315
asbag57
(g78
g59
NtRp694
(dp695
g62
(dp696
g89
g90
ssg71
g686
sg64
(lp697
S':'
asbag57
(g78
g59
NtRp698
(dp699
g62
(dp700
sg71
g686
sg64
(lp701
g57
(g58
g59
NtRp702
(dp703
g62
(dp704
g70
I3
ssg71
g698
sg64
(lp705
S''
asbasbasbag57
(g73
g59
NtRp706
(dp707
g62
(dp708
sg71
g662
sg64
(lp709
g57
(g78
g59
NtRp710
(dp711
g62
(dp712
g82
g83
ssg71
g706
sg64
(lp713
g336
asbag57
(g78
g59
NtRp714
(dp715
g62
(dp716
g89
g90
ssg71
g706
sg64
(lp717
S':'
asbag57
(g78
g59
NtRp718
(dp719
g62
(dp720
sg71
g706
sg64
(lp721
g57
(g58
g59
NtRp722
(dp723
g62
(dp724
g70
I3
ssg71
g718
sg64
(lp725
S''
asbasbasbag57
(g73
g59
NtRp726
(dp727
g62
(dp728
sg71
g662
sg64
(lp729
g57
(g78
g59
NtRp730
(dp731
g62
(dp732
g82
g83
ssg71
g726
sg64
(lp733
g357
asbag57
(g78
g59
NtRp734
(dp735
g62
(dp736
g89
g90
ssg71
g726
sg64
(lp737
S':'
asbag57
(g78
g59
NtRp738
(dp739
g62
(dp740
sg71
g726
sg64
(lp741
g57
(g58
g59
NtRp742
(dp743
g62
(dp744
g70
I3
ssg71
g738
sg64
(lp745
S''
asbasbasbag57
(g73
g59
NtRp746
(dp747
g62
(dp748
sg71
g662
sg64
(lp749
g57
(g78
g59
NtRp750
(dp751
g62
(dp752
g82
g83
ssg71
g746
sg64
(lp753
g378
asbag57
(g78
g59
NtRp754
(dp755
g62
(dp756
g89
g90
ssg71
g746
sg64
(lp757
S':'
asbag57
(g78
g59
NtRp758
(dp759
g62
(dp760
sg71
g746
sg64
(lp761
g57
(g58
g59
NtRp762
(dp763
g62
(dp764
g70
I3
ssg71
g758
sg64
(lp765
S''
asbasbasbag57
(g73
g59
NtRp766
(dp767
g62
(dp768
sg71
g662
sg64
(lp769
g57
(g78
g59
NtRp770
(dp771
g62
(dp772
g82
g83
ssg71
g766
sg64
(lp773
g399
asbag57
(g78
g59
NtRp774
(dp775
g62
(dp776
g89
g90
ssg71
g766
sg64
(lp777
S':'
asbag57
(g78
g59
NtRp778
(dp779
g62
(dp780
sg71
g766
sg64
(lp781
g57
(g58
g59
NtRp782
(dp783
g62
(dp784
g70
I3
ssg71
g778
sg64
(lp785
S''
asbasbasbag57
(g73
g59
NtRp786
(dp787
g62
(dp788
sg71
g662
sg64
(lp789
g57
(g78
g59
NtRp790
(dp791
g62
(dp792
g82
g83
ssg71
g786
sg64
(lp793
g420
asbag57
(g78
g59
NtRp794
(dp795
g62
(dp796
g89
g90
ssg71
g786
sg64
(lp797
S':'
asbag57
(g78
g59
NtRp798
(dp799
g62
(dp800
sg71
g786
sg64
(lp801
g57
(g58
g59
NtRp802
(dp803
g62
(dp804
g70
I3
ssg71
g798
sg64
(lp805
S''
asbasbasbag57
(g73
g59
NtRp806
(dp807
g62
(dp808
sg71
g662
sg64
(lp809
g57
(g78
g59
NtRp810
(dp811
g62
(dp812
g82
g83
ssg71
g806
sg64
(lp813
g441
asbag57
(g78
g59
NtRp814
(dp815
g62
(dp816
g89
g90
ssg71
g806
sg64
(lp817
S':'
asbag57
(g78
g59
NtRp818
(dp819
g62
(dp820
sg71
g806
sg64
(lp821
g57
(g58
g59
NtRp822
(dp823
g62
(dp824
g70
I3
ssg71
g818
sg64
(lp825
S''
asbasbasbasbasbasbasbasbasbasbasbag57
(g73
g59
NtRp826
(dp827
g62
(dp828
sg71
g67
sg64
(lp829
g57
(g78
g59
NtRp830
(dp831
g62
(dp832
g82
g83
ssg71
g826
sg64
(lp833
S'env'
p834
asbag57
(g78
g59
NtRp835
(dp836
g62
(dp837
g89
g90
ssg71
g826
sg64
(lp838
S':'
asbag57
(g78
g59
NtRp839
(dp840
g62
(dp841
sg71
g826
sg64
(lp842
g57
(g58
g59
NtRp843
(dp844
g62
(dp845
g70
I5
ssg71
g839
sg64
(lp846
g57
(g66
g59
NtRp847
(dp848
g62
(dp849
g70
I4
ssg71
Nsg64
(lp850
g57
(g73
g59
NtRp851
(dp852
g62
(dp853
sg71
g847
sg64
(lp854
g57
(g78
g59
NtRp855
(dp856
g62
(dp857
g82
g83
ssg71
g851
sg64
(lp858
S'app_folders'
p859
asbag57
(g78
g59
NtRp860
(dp861
g62
(dp862
g89
g90
ssg71
g851
sg64
(lp863
S':'
asbag57
(g78
g59
NtRp864
(dp865
g62
(dp866
sg71
g851
sg64
(lp867
g57
(g58
g59
NtRp868
(dp869
g62
(dp870
g70
I4
ssg71
g864
sg64
(lp871
S"set(['D:\\\\github-develop\\\\web2py\\\\applications\\\\welcome\\\\', 'D:\\\\github-develop\\\\web2py\\\\applications\\\\admin\\\\', 'D:\\\\github-develop\\\\web2py\\\\applications\\\\myapp\\\\'])"
p872
asbasbasbag57
(g73
g59
NtRp873
(dp874
g62
(dp875
sg71
g847
sg64
(lp876
g57
(g78
g59
NtRp877
(dp878
g62
(dp879
g82
g83
ssg71
g873
sg64
(lp880
S'applications_parent'
p881
asbag57
(g78
g59
NtRp882
(dp883
g62
(dp884
g89
g90
ssg71
g873
sg64
(lp885
S':'
asbag57
(g78
g59
NtRp886
(dp887
g62
(dp888
sg71
g873
sg64
(lp889
g57
(g58
g59
NtRp890
(dp891
g62
(dp892
g70
I4
ssg71
g886
sg64
(lp893
S'D:\\github-develop\\web2py'
p894
asbasbasbag57
(g73
g59
NtRp895
(dp896
g62
(dp897
sg71
g847
sg64
(lp898
g57
(g78
g59
NtRp899
(dp900
g62
(dp901
g82
g83
ssg71
g895
sg64
(lp902
S'cmd_args'
p903
asbag57
(g78
g59
NtRp904
(dp905
g62
(dp906
g89
g90
ssg71
g895
sg64
(lp907
S':'
asbag57
(g78
g59
NtRp908
(dp909
g62
(dp910
sg71
g895
sg64
(lp911
g57
(g58
g59
NtRp912
(dp913
g62
(dp914
g70
I4
ssg71
g908
sg64
(lp915
g57
(g66
g59
NtRp916
(dp917
g62
(dp918
g70
I3
ssg71
Nsg64
(lp919
sbasbasbasbag57
(g73
g59
NtRp920
(dp921
g62
(dp922
sg71
g847
sg64
(lp923
g57
(g78
g59
NtRp924
(dp925
g62
(dp926
g82
g83
ssg71
g920
sg64
(lp927
S'cmd_options'
p928
asbag57
(g78
g59
NtRp929
(dp930
g62
(dp931
g89
g90
ssg71
g920
sg64
(lp932
S':'
asbag57
(g78
g59
NtRp933
(dp934
g62
(dp935
sg71
g920
sg64
(lp936
g57
(g58
g59
NtRp937
(dp938
g62
(dp939
g70
I4
ssg71
g933
sg64
(lp940
S"<Values at 0x31b6198: {'verbose': False, 'ip': '127.0.0.1', 'with_scheduler': False, 'ips': ['192.168.0.20'], 'shutdown_timeout': 5, 'taskbar': False, 'port': 8000, 'maxthreads': None, 'softcron': False, 'server_name': 'key', 'bpython': False, 'nogui': False, 'pid_filename': 'httpserver.pid', 'extcron': False, 'runcron': False, 'run_system_tests': False, 'test': None, 'folder': 'D:\\\\github-develop\\\\web2py', 'config': '', 'import_models': False, 'winservice': '', 'shell': None, 'run': '', 'log_filename': 'httpserver.log', 'debuglevel': 30, 'args': [''], 'socket_timeout': 5, 'ssl_ca_certificate': None, 'scheduler': None, 'profiler_filename': None, 'ssl_private_key': '', 'scheduler_groups': None, 'password': '<ask>', 'request_queue_size': 5, 'ssl_certificate': '', 'cronjob': False, 'numthreads': None, 'quiet': False, 'interfaces': None, 'minthreads': None, 'timeout': 10, 'plain': False, 'nobanner': False}>"
p941
asbasbasbag57
(g73
g59
NtRp942
(dp943
g62
(dp944
sg71
g847
sg64
(lp945
g57
(g78
g59
NtRp946
(dp947
g62
(dp948
g82
g83
ssg71
g942
sg64
(lp949
S'db_sessions'
p950
asbag57
(g78
g59
NtRp951
(dp952
g62
(dp953
g89
g90
ssg71
g942
sg64
(lp954
S':'
asbag57
(g78
g59
NtRp955
(dp956
g62
(dp957
sg71
g942
sg64
(lp958
g57
(g58
g59
NtRp959
(dp960
g62
(dp961
g70
I4
ssg71
g955
sg64
(lp962
S'set([])'
p963
asbasbasbag57
(g73
g59
NtRp964
(dp965
g62
(dp966
sg71
g847
sg64
(lp967
g57
(g78
g59
NtRp968
(dp969
g62
(dp970
g82
g83
ssg71
g964
sg64
(lp971
S'debugging'
p972
asbag57
(g78
g59
NtRp973
(dp974
g62
(dp975
g89
g90
ssg71
g964
sg64
(lp976
S':'
asbag57
(g78
g59
NtRp977
(dp978
g62
(dp979
sg71
g964
sg64
(lp980
g57
(g58
g59
NtRp981
(dp982
g62
(dp983
g70
I4
ssg71
g977
sg64
(lp984
g100
asbasbasbag57
(g73
g59
NtRp985
(dp986
g62
(dp987
sg71
g847
sg64
(lp988
g57
(g78
g59
NtRp989
(dp990
g62
(dp991
g82
g83
ssg71
g985
sg64
(lp992
S'gluon_parent'
p993
asbag57
(g78
g59
NtRp994
(dp995
g62
(dp996
g89
g90
ssg71
g985
sg64
(lp997
S':'
asbag57
(g78
g59
NtRp998
(dp999
g62
(dp1000
sg71
g985
sg64
(lp1001
g57
(g58
g59
NtRp1002
(dp1003
g62
(dp1004
g70
I4
ssg71
g998
sg64
(lp1005
S'D:\\github-develop\\web2py'
p1006
asbasbasbag57
(g73
g59
NtRp1007
(dp1008
g62
(dp1009
sg71
g847
sg64
(lp1010
g57
(g78
g59
NtRp1011
(dp1012
g62
(dp1013
g82
g83
ssg71
g1007
sg64
(lp1014
S'http_accept'
p1015
asbag57
(g78
g59
NtRp1016
(dp1017
g62
(dp1018
g89
g90
ssg71
g1007
sg64
(lp1019
S':'
asbag57
(g78
g59
NtRp1020
(dp1021
g62
(dp1022
sg71
g1007
sg64
(lp1023
g57
(g58
g59
NtRp1024
(dp1025
g62
(dp1026
g70
I4
ssg71
g1020
sg64
(lp1027
S'text/html,application/xhtml+xml,application/xml;q=0.9,*/*;q=0.8'
p1028
asbasbasbag57
(g73
g59
NtRp1029
(dp1030
g62
(dp1031
sg71
g847
sg64
(lp1032
g57
(g78
g59
NtRp1033
(dp1034
g62
(dp1035
g82
g83
ssg71
g1029
sg64
(lp1036
S'http_accept_charset'
p1037
asbag57
(g78
g59
NtRp1038
(dp1039
g62
(dp1040
g89
g90
ssg71
g1029
sg64
(lp1041
S':'
asbag57
(g78
g59
NtRp1042
(dp1043
g62
(dp1044
sg71
g1029
sg64
(lp1045
g57
(g58
g59
NtRp1046
(dp1047
g62
(dp1048
g70
I4
ssg71
g1042
sg64
(lp1049
S'windows-1251,utf-8;q=0.7,*;q=0.3'
p1050
asbasbasbag57
(g73
g59
NtRp1051
(dp1052
g62
(dp1053
sg71
g847
sg64
(lp1054
g57
(g78
g59
NtRp1055
(dp1056
g62
(dp1057
g82
g83
ssg71
g1051
sg64
(lp1058
S'http_accept_encoding'
p1059
asbag57
(g78
g59
NtRp1060
(dp1061
g62
(dp1062
g89
g90
ssg71
g1051
sg64
(lp1063
S':'
asbag57
(g78
g59
NtRp1064
(dp1065
g62
(dp1066
sg71
g1051
sg64
(lp1067
g57
(g58
g59
NtRp1068
(dp1069
g62
(dp1070
g70
I4
ssg71
g1064
sg64
(lp1071
S'gzip,deflate,gzip'
p1072
asbasbasbag57
(g73
g59
NtRp1073
(dp1074
g62
(dp1075
sg71
g847
sg64
(lp1076
g57
(g78
g59
NtRp1077
(dp1078
g62
(dp1079
g82
g83
ssg71
g1073
sg64
(lp1080
S'http_accept_language'
p1081
asbag57
(g78
g59
NtRp1082
(dp1083
g62
(dp1084
g89
g90
ssg71
g1073
sg64
(lp1085
S':'
asbag57
(g78
g59
NtRp1086
(dp1087
g62
(dp1088
sg71
g1073
sg64
(lp1089
g57
(g58
g59
NtRp1090
(dp1091
g62
(dp1092
g70
I4
ssg71
g1086
sg64
(lp1093
S'ru-RU,ru;q=0.8,en-US;q=0.6,en;q=0.4'
p1094
asbasbasbag57
(g73
g59
NtRp1095
(dp1096
g62
(dp1097
sg71
g847
sg64
(lp1098
g57
(g78
g59
NtRp1099
(dp1100
g62
(dp1101
g82
g83
ssg71
g1095
sg64
(lp1102
S'http_cache_control'
p1103
asbag57
(g78
g59
NtRp1104
(dp1105
g62
(dp1106
g89
g90
ssg71
g1095
sg64
(lp1107
S':'
asbag57
(g78
g59
NtRp1108
(dp1109
g62
(dp1110
sg71
g1095
sg64
(lp1111
g57
(g58
g59
NtRp1112
(dp1113
g62
(dp1114
g70
I4
ssg71
g1108
sg64
(lp1115
S'max-age=0'
p1116
asbasbasbag57
(g73
g59
NtRp1117
(dp1118
g62
(dp1119
sg71
g847
sg64
(lp1120
g57
(g78
g59
NtRp1121
(dp1122
g62
(dp1123
g82
g83
ssg71
g1117
sg64
(lp1124
S'http_connection'
p1125
asbag57
(g78
g59
NtRp1126
(dp1127
g62
(dp1128
g89
g90
ssg71
g1117
sg64
(lp1129
S':'
asbag57
(g78
g59
NtRp1130
(dp1131
g62
(dp1132
sg71
g1117
sg64
(lp1133
g57
(g58
g59
NtRp1134
(dp1135
g62
(dp1136
g70
I4
ssg71
g1130
sg64
(lp1137
S'keep-alive'
p1138
asbasbasbag57
(g73
g59
NtRp1139
(dp1140
g62
(dp1141
sg71
g847
sg64
(lp1142
g57
(g78
g59
NtRp1143
(dp1144
g62
(dp1145
g82
g83
ssg71
g1139
sg64
(lp1146
S'http_cookie'
p1147
asbag57
(g78
g59
NtRp1148
(dp1149
g62
(dp1150
g89
g90
ssg71
g1139
sg64
(lp1151
S':'
asbag57
(g78
g59
NtRp1152
(dp1153
g62
(dp1154
sg71
g1139
sg64
(lp1155
g57
(g58
g59
NtRp1156
(dp1157
g62
(dp1158
g70
I4
ssg71
g1152
sg64
(lp1159
S'session_id_welcome=127.0.0.1-6aa84d50-0730-4cdb-b64c-9bce7bd0e77c; session_id_myapp=127.0.0.1-c0952a33-5ab0-41a8-a77e-f43f0e5bde89; session_id_admin=127.0.0.1-0632ed9b-c315-4ad5-b7b2-fec3238a1346'
p1160
asbasbasbag57
(g73
g59
NtRp1161
(dp1162
g62
(dp1163
sg71
g847
sg64
(lp1164
g57
(g78
g59
NtRp1165
(dp1166
g62
(dp1167
g82
g83
ssg71
g1161
sg64
(lp1168
S'http_host'
p1169
asbag57
(g78
g59
NtRp1170
(dp1171
g62
(dp1172
g89
g90
ssg71
g1161
sg64
(lp1173
S':'
asbag57
(g78
g59
NtRp1174
(dp1175
g62
(dp1176
sg71
g1161
sg64
(lp1177
g57
(g58
g59
NtRp1178
(dp1179
g62
(dp1180
g70
I4
ssg71
g1174
sg64
(lp1181
S'127.0.0.1:8000'
p1182
asbasbasbag57
(g73
g59
NtRp1183
(dp1184
g62
(dp1185
sg71
g847
sg64
(lp1186
g57
(g78
g59
NtRp1187
(dp1188
g62
(dp1189
g82
g83
ssg71
g1183
sg64
(lp1190
S'http_user_agent'
p1191
asbag57
(g78
g59
NtRp1192
(dp1193
g62
(dp1194
g89
g90
ssg71
g1183
sg64
(lp1195
S':'
asbag57
(g78
g59
NtRp1196
(dp1197
g62
(dp1198
sg71
g1183
sg64
(lp1199
g57
(g58
g59
NtRp1200
(dp1201
g62
(dp1202
g70
I4
ssg71
g1196
sg64
(lp1203
S'Mozilla/5.0 (Windows NT 6.2; WOW64) AppleWebKit/537.17 (KHTML, like Gecko) Chrome/24.0.1312.57 Safari/537.17'
p1204
asbasbasbag57
(g73
g59
NtRp1205
(dp1206
g62
(dp1207
sg71
g847
sg64
(lp1208
g57
(g78
g59
NtRp1209
(dp1210
g62
(dp1211
g82
g83
ssg71
g1205
sg64
(lp1212
S'is_jython'
p1213
asbag57
(g78
g59
NtRp1214
(dp1215
g62
(dp1216
g89
g90
ssg71
g1205
sg64
(lp1217
S':'
asbag57
(g78
g59
NtRp1218
(dp1219
g62
(dp1220
sg71
g1205
sg64
(lp1221
g57
(g58
g59
NtRp1222
(dp1223
g62
(dp1224
g70
I4
ssg71
g1218
sg64
(lp1225
g100
asbasbasbag57
(g73
g59
NtRp1226
(dp1227
g62
(dp1228
sg71
g847
sg64
(lp1229
g57
(g78
g59
NtRp1230
(dp1231
g62
(dp1232
g82
g83
ssg71
g1226
sg64
(lp1233
S'is_pypy'
p1234
asbag57
(g78
g59
NtRp1235
(dp1236
g62
(dp1237
g89
g90
ssg71
g1226
sg64
(lp1238
S':'
asbag57
(g78
g59
NtRp1239
(dp1240
g62
(dp1241
sg71
g1226
sg64
(lp1242
g57
(g58
g59
NtRp1243
(dp1244
g62
(dp1245
g70
I4
ssg71
g1239
sg64
(lp1246
g100
asbasbasbag57
(g73
g59
NtRp1247
(dp1248
g62
(dp1249
sg71
g847
sg64
(lp1250
g57
(g78
g59
NtRp1251
(dp1252
g62
(dp1253
g82
g83
ssg71
g1247
sg64
(lp1254
S'local_hosts'
p1255
asbag57
(g78
g59
NtRp1256
(dp1257
g62
(dp1258
g89
g90
ssg71
g1247
sg64
(lp1259
S':'
asbag57
(g78
g59
NtRp1260
(dp1261
g62
(dp1262
sg71
g1247
sg64
(lp1263
g57
(g58
g59
NtRp1264
(dp1265
g62
(dp1266
g70
I4
ssg71
g1260
sg64
(lp1267
g57
(g66
g59
NtRp1268
(dp1269
g62
(dp1270
g70
I3
ssg71
Nsg64
(lp1271
g57
(g73
g59
NtRp1272
(dp1273
g62
(dp1274
sg71
g1268
sg64
(lp1275
g57
(g78
g59
NtRp1276
(dp1277
g62
(dp1278
sg71
g1272
sg64
(lp1279
g57
(g58
g59
NtRp1280
(dp1281
g62
(dp1282
g70
I3
ssg71
g1276
sg64
(lp1283
S'key.Dlink'
p1284
asbasbasbag57
(g73
g59
NtRp1285
(dp1286
g62
(dp1287
sg71
g1268
sg64
(lp1288
g57
(g78
g59
NtRp1289
(dp1290
g62
(dp1291
sg71
g1285
sg64
(lp1292
g57
(g58
g59
NtRp1293
(dp1294
g62
(dp1295
g70
I3
ssg71
g1289
sg64
(lp1296
S'::ffff:127.0.0.1'
p1297
asbasbasbag57
(g73
g59
NtRp1298
(dp1299
g62
(dp1300
sg71
g1268
sg64
(lp1301
g57
(g78
g59
NtRp1302
(dp1303
g62
(dp1304
sg71
g1298
sg64
(lp1305
g57
(g58
g59
NtRp1306
(dp1307
g62
(dp1308
g70
I3
ssg71
g1302
sg64
(lp1309
S'::1'
p1310
asbasbasbag57
(g73
g59
NtRp1311
(dp1312
g62
(dp1313
sg71
g1268
sg64
(lp1314
g57
(g78
g59
NtRp1315
(dp1316
g62
(dp1317
sg71
g1311
sg64
(lp1318
g57
(g58
g59
NtRp1319
(dp1320
g62
(dp1321
g70
I3
ssg71
g1315
sg64
(lp1322
S'192.168.0.20'
p1323
asbasbasbag57
(g73
g59
NtRp1324
(dp1325
g62
(dp1326
sg71
g1268
sg64
(lp1327
g57
(g78
g59
NtRp1328
(dp1329
g62
(dp1330
sg71
g1324
sg64
(lp1331
g57
(g58
g59
NtRp1332
(dp1333
g62
(dp1334
g70
I3
ssg71
g1328
sg64
(lp1335
S'key'
p1336
asbasbasbag57
(g73
g59
NtRp1337
(dp1338
g62
(dp1339
sg71
g1268
sg64
(lp1340
g57
(g78
g59
NtRp1341
(dp1342
g62
(dp1343
sg71
g1337
sg64
(lp1344
g57
(g58
g59
NtRp1345
(dp1346
g62
(dp1347
g70
I3
ssg71
g1341
sg64
(lp1348
S'fe80::b484:5d75:b7d9:ad5e%13'
p1349
asbasbasbag57
(g73
g59
NtRp1350
(dp1351
g62
(dp1352
sg71
g1268
sg64
(lp1353
g57
(g78
g59
NtRp1354
(dp1355
g62
(dp1356
sg71
g1350
sg64
(lp1357
g57
(g58
g59
NtRp1358
(dp1359
g62
(dp1360
g70
I3
ssg71
g1354
sg64
(lp1361
S'2001:0:9d38:953c:1ce3:6e3:4379:cf9d'
p1362
asbasbasbag57
(g73
g59
NtRp1363
(dp1364
g62
(dp1365
sg71
g1268
sg64
(lp1366
g57
(g78
g59
NtRp1367
(dp1368
g62
(dp1369
sg71
g1363
sg64
(lp1370
g57
(g58
g59
NtRp1371
(dp1372
g62
(dp1373
g70
I3
ssg71
g1367
sg64
(lp1374
S'fe80::1ce3:6e3:4379:cf9d%20'
p1375
asbasbasbag57
(g73
g59
NtRp1376
(dp1377
g62
(dp1378
sg71
g1268
sg64
(lp1379
g57
(g78
g59
NtRp1380
(dp1381
g62
(dp1382
sg71
g1376
sg64
(lp1383
g57
(g58
g59
NtRp1384
(dp1385
g62
(dp1386
g70
I3
ssg71
g1380
sg64
(lp1387
S'127.0.0.1'
p1388
asbasbasbasbasbasbasbag57
(g73
g59
NtRp1389
(dp1390
g62
(dp1391
sg71
g847
sg64
(lp1392
g57
(g78
g59
NtRp1393
(dp1394
g62
(dp1395
g82
g83
ssg71
g1389
sg64
(lp1396
S'path_info'
p1397
asbag57
(g78
g59
NtRp1398
(dp1399
g62
(dp1400
g89
g90
ssg71
g1389
sg64
(lp1401
S':'
asbag57
(g78
g59
NtRp1402
(dp1403
g62
(dp1404
sg71
g1389
sg64
(lp1405
g57
(g58
g59
NtRp1406
(dp1407
g62
(dp1408
g70
I4
ssg71
g1402
sg64
(lp1409
S'/myapp'
p1410
asbasbasbag57
(g73
g59
NtRp1411
(dp1412
g62
(dp1413
sg71
g847
sg64
(lp1414
g57
(g78
g59
NtRp1415
(dp1416
g62
(dp1417
g82
g83
ssg71
g1411
sg64
(lp1418
S'query_string'
p1419
asbag57
(g78
g59
NtRp1420
(dp1421
g62
(dp1422
g89
g90
ssg71
g1411
sg64
(lp1423
S':'
asbag57
(g78
g59
NtRp1424
(dp1425
g62
(dp1426
sg71
g1411
sg64
(lp1427
g57
(g58
g59
NtRp1428
(dp1429
g62
(dp1430
g70
I4
ssg71
g1424
sg64
(lp1431
S''
asbasbasbag57
(g73
g59
NtRp1432
(dp1433
g62
(dp1434
sg71
g847
sg64
(lp1435
g57
(g78
g59
NtRp1436
(dp1437
g62
(dp1438
g82
g83
ssg71
g1432
sg64
(lp1439
S'remote_addr'
p1440
asbag57
(g78
g59
NtRp1441
(dp1442
g62
(dp1443
g89
g90
ssg71
g1432
sg64
(lp1444
S':'
asbag57
(g78
g59
NtRp1445
(dp1446
g62
(dp1447
sg71
g1432
sg64
(lp1448
g57
(g58
g59
NtRp1449
(dp1450
g62
(dp1451
g70
I4
ssg71
g1445
sg64
(lp1452
g212
asbasbasbag57
(g73
g59
NtRp1453
(dp1454
g62
(dp1455
sg71
g847
sg64
(lp1456
g57
(g78
g59
NtRp1457
(dp1458
g62
(dp1459
g82
g83
ssg71
g1453
sg64
(lp1460
S'remote_port'
p1461
asbag57
(g78
g59
NtRp1462
(dp1463
g62
(dp1464
g89
g90
ssg71
g1453
sg64
(lp1465
S':'
asbag57
(g78
g59
NtRp1466
(dp1467
g62
(dp1468
sg71
g1453
sg64
(lp1469
g57
(g58
g59
NtRp1470
(dp1471
g62
(dp1472
g70
I4
ssg71
g1466
sg64
(lp1473
S'53203'
p1474
asbasbasbag57
(g73
g59
NtRp1475
(dp1476
g62
(dp1477
sg71
g847
sg64
(lp1478
g57
(g78
g59
NtRp1479
(dp1480
g62
(dp1481
g82
g83
ssg71
g1475
sg64
(lp1482
S'request_method'
p1483
asbag57
(g78
g59
NtRp1484
(dp1485
g62
(dp1486
g89
g90
ssg71
g1475
sg64
(lp1487
S':'
asbag57
(g78
g59
NtRp1488
(dp1489
g62
(dp1490
sg71
g1475
sg64
(lp1491
g57
(g58
g59
NtRp1492
(dp1493
g62
(dp1494
g70
I4
ssg71
g1488
sg64
(lp1495
S'GET'
p1496
asbasbasbag57
(g73
g59
NtRp1497
(dp1498
g62
(dp1499
sg71
g847
sg64
(lp1500
g57
(g78
g59
NtRp1501
(dp1502
g62
(dp1503
g82
g83
ssg71
g1497
sg64
(lp1504
S'request_uri'
p1505
asbag57
(g78
g59
NtRp1506
(dp1507
g62
(dp1508
g89
g90
ssg71
g1497
sg64
(lp1509
S':'
asbag57
(g78
g59
NtRp1510
(dp1511
g62
(dp1512
sg71
g1497
sg64
(lp1513
g57
(g58
g59
NtRp1514
(dp1515
g62
(dp1516
g70
I4
ssg71
g1510
sg64
(lp1517
g1410
asbasbasbag57
(g73
g59
NtRp1518
(dp1519
g62
(dp1520
sg71
g847
sg64
(lp1521
g57
(g78
g59
NtRp1522
(dp1523
g62
(dp1524
g82
g83
ssg71
g1518
sg64
(lp1525
S'script_name'
p1526
asbag57
(g78
g59
NtRp1527
(dp1528
g62
(dp1529
g89
g90
ssg71
g1518
sg64
(lp1530
S':'
asbag57
(g78
g59
NtRp1531
(dp1532
g62
(dp1533
sg71
g1518
sg64
(lp1534
g57
(g58
g59
NtRp1535
(dp1536
g62
(dp1537
g70
I4
ssg71
g1531
sg64
(lp1538
S''
asbasbasbag57
(g73
g59
NtRp1539
(dp1540
g62
(dp1541
sg71
g847
sg64
(lp1542
g57
(g78
g59
NtRp1543
(dp1544
g62
(dp1545
g82
g83
ssg71
g1539
sg64
(lp1546
S'server_name'
p1547
asbag57
(g78
g59
NtRp1548
(dp1549
g62
(dp1550
g89
g90
ssg71
g1539
sg64
(lp1551
S':'
asbag57
(g78
g59
NtRp1552
(dp1553
g62
(dp1554
sg71
g1539
sg64
(lp1555
g57
(g58
g59
NtRp1556
(dp1557
g62
(dp1558
g70
I4
ssg71
g1552
sg64
(lp1559
S'key'
p1560
asbasbasbag57
(g73
g59
NtRp1561
(dp1562
g62
(dp1563
sg71
g847
sg64
(lp1564
g57
(g78
g59
NtRp1565
(dp1566
g62
(dp1567
g82
g83
ssg71
g1561
sg64
(lp1568
S'server_port'
p1569
asbag57
(g78
g59
NtRp1570
(dp1571
g62
(dp1572
g89
g90
ssg71
g1561
sg64
(lp1573
S':'
asbag57
(g78
g59
NtRp1574
(dp1575
g62
(dp1576
sg71
g1561
sg64
(lp1577
g57
(g58
g59
NtRp1578
(dp1579
g62
(dp1580
g70
I4
ssg71
g1574
sg64
(lp1581
S'8000'
p1582
asbasbasbag57
(g73
g59
NtRp1583
(dp1584
g62
(dp1585
sg71
g847
sg64
(lp1586
g57
(g78
g59
NtRp1587
(dp1588
g62
(dp1589
g82
g83
ssg71
g1583
sg64
(lp1590
S'server_protocol'
p1591
asbag57
(g78
g59
NtRp1592
(dp1593
g62
(dp1594
g89
g90
ssg71
g1583
sg64
(lp1595
S':'
asbag57
(g78
g59
NtRp1596
(dp1597
g62
(dp1598
sg71
g1583
sg64
(lp1599
g57
(g58
g59
NtRp1600
(dp1601
g62
(dp1602
g70
I4
ssg71
g1596
sg64
(lp1603
S'HTTP/1.1'
p1604
asbasbasbag57
(g73
g59
NtRp1605
(dp1606
g62
(dp1607
sg71
g847
sg64
(lp1608
g57
(g78
g59
NtRp1609
(dp1610
g62
(dp1611
g82
g83
ssg71
g1605
sg64
(lp1612
S'server_software'
p1613
asbag57
(g78
g59
NtRp1614
(dp1615
g62
(dp1616
g89
g90
ssg71
g1605
sg64
(lp1617
S':'
asbag57
(g78
g59
NtRp1618
(dp1619
g62
(dp1620
sg71
g1605
sg64
(lp1621
g57
(g58
g59
NtRp1622
(dp1623
g62
(dp1624
g70
I4
ssg71
g1618
sg64
(lp1625
S'Rocket 1.2.6'
p1626
asbasbasbag57
(g73
g59
NtRp1627
(dp1628
g62
(dp1629
sg71
g847
sg64
(lp1630
g57
(g78
g59
NtRp1631
(dp1632
g62
(dp1633
g82
g83
ssg71
g1627
sg64
(lp1634
S'web2py_path'
p1635
asbag57
(g78
g59
NtRp1636
(dp1637
g62
(dp1638
g89
g90
ssg71
g1627
sg64
(lp1639
S':'
asbag57
(g78
g59
NtRp1640
(dp1641
g62
(dp1642
sg71
g1627
sg64
(lp1643
g57
(g58
g59
NtRp1644
(dp1645
g62
(dp1646
g70
I4
ssg71
g1640
sg64
(lp1647
g894
asbasbasbag57
(g73
g59
NtRp1648
(dp1649
g62
(dp1650
sg71
g847
sg64
(lp1651
g57
(g78
g59
NtRp1652
(dp1653
g62
(dp1654
g82
g83
ssg71
g1648
sg64
(lp1655
S'web2py_version'
p1656
asbag57
(g78
g59
NtRp1657
(dp1658
g62
(dp1659
g89
g90
ssg71
g1648
sg64
(lp1660
S':'
asbag57
(g78
g59
NtRp1661
(dp1662
g62
(dp1663
sg71
g1648
sg64
(lp1664
g57
(g58
g59
NtRp1665
(dp1666
g62
(dp1667
g70
I4
ssg71
g1661
sg64
(lp1668
g57
(g66
g59
NtRp1669
(dp1670
g62
(dp1671
g70
I3
ssg71
Nsg64
(lp1672
g57
(g73
g59
NtRp1673
(dp1674
g62
(dp1675
sg71
g1669
sg64
(lp1676
g57
(g78
g59
NtRp1677
(dp1678
g62
(dp1679
sg71
g1673
sg64
(lp1680
g57
(g58
g59
NtRp1681
(dp1682
g62
(dp1683
g70
I3
ssg71
g1677
sg64
(lp1684
S'2'
asbasbasbag57
(g73
g59
NtRp1685
(dp1686
g62
(dp1687
sg71
g1669
sg64
(lp1688
g57
(g78
g59
NtRp1689
(dp1690
g62
(dp1691
sg71
g1685
sg64
(lp1692
g57
(g58
g59
NtRp1693
(dp1694
g62
(dp1695
g70
I3
ssg71
g1689
sg64
(lp1696
S'3'
asbasbasbag57
(g73
g59
NtRp1697
(dp1698
g62
(dp1699
sg71
g1669
sg64
(lp1700
g57
(g78
g59
NtRp1701
(dp1702
g62
(dp1703
sg71
g1697
sg64
(lp1704
g57
(g58
g59
NtRp1705
(dp1706
g62
(dp1707
g70
I3
ssg71
g1701
sg64
(lp1708
S'2'
asbasbasbag57
(g73
g59
NtRp1709
(dp1710
g62
(dp1711
sg71
g1669
sg64
(lp1712
g57
(g78
g59
NtRp1713
(dp1714
g62
(dp1715
sg71
g1709
sg64
(lp1716
g57
(g58
g59
NtRp1717
(dp1718
g62
(dp1719
g70
I3
ssg71
g1713
sg64
(lp1720
S'datetime.datetime(2012, 12, 17, 15, 3, 30)'
p1721
asbasbasbag57
(g73
g59
NtRp1722
(dp1723
g62
(dp1724
sg71
g1669
sg64
(lp1725
g57
(g78
g59
NtRp1726
(dp1727
g62
(dp1728
sg71
g1722
sg64
(lp1729
g57
(g58
g59
NtRp1730
(dp1731
g62
(dp1732
g70
I3
ssg71
g1726
sg64
(lp1733
S'stable'
p1734
asbasbasbasbasbasbasbag57
(g73
g59
NtRp1735
(dp1736
g62
(dp1737
sg71
g847
sg64
(lp1738
g57
(g78
g59
NtRp1739
(dp1740
g62
(dp1741
g82
g83
ssg71
g1735
sg64
(lp1742
S'wsgi_errors'
p1743
asbag57
(g78
g59
NtRp1744
(dp1745
g62
(dp1746
g89
g90
ssg71
g1735
sg64
(lp1747
S':'
asbag57
(g78
g59
NtRp1748
(dp1749
g62
(dp1750
sg71
g1735
sg64
(lp1751
g57
(g58
g59
NtRp1752
(dp1753
g62
(dp1754
g70
I4
ssg71
g1748
sg64
(lp1755
S"<open file '<stderr>', mode 'w' at 0x004950D0>"
p1756
asbasbasbag57
(g73
g59
NtRp1757
(dp1758
g62
(dp1759
sg71
g847
sg64
(lp1760
g57
(g78
g59
NtRp1761
(dp1762
g62
(dp1763
g82
g83
ssg71
g1757
sg64
(lp1764
S'wsgi_file_wrapper'
p1765
asbag57
(g78
g59
NtRp1766
(dp1767
g62
(dp1768
g89
g90
ssg71
g1757
sg64
(lp1769
S':'
asbag57
(g78
g59
NtRp1770
(dp1771
g62
(dp1772
sg71
g1757
sg64
(lp1773
g57
(g58
g59
NtRp1774
(dp1775
g62
(dp1776
g70
I4
ssg71
g1770
sg64
(lp1777
S'<class wsgiref.util.FileWrapper at 0x031870A0>'
p1778
asbasbasbag57
(g73
g59
NtRp1779
(dp1780
g62
(dp1781
sg71
g847
sg64
(lp1782
g57
(g78
g59
NtRp1783
(dp1784
g62
(dp1785
g82
g83
ssg71
g1779
sg64
(lp1786
S'wsgi_input'
p1787
asbag57
(g78
g59
NtRp1788
(dp1789
g62
(dp1790
g89
g90
ssg71
g1779
sg64
(lp1791
S':'
asbag57
(g78
g59
NtRp1792
(dp1793
g62
(dp1794
sg71
g1779
sg64
(lp1795
g57
(g58
g59
NtRp1796
(dp1797
g62
(dp1798
g70
I4
ssg71
g1792
sg64
(lp1799
S'<socket._fileobject object at 0x097BA330>'
p1800
asbasbasbag57
(g73
g59
NtRp1801
(dp1802
g62
(dp1803
sg71
g847
sg64
(lp1804
g57
(g78
g59
NtRp1805
(dp1806
g62
(dp1807
g82
g83
ssg71
g1801
sg64
(lp1808
S'wsgi_multiprocess'
p1809
asbag57
(g78
g59
NtRp1810
(dp1811
g62
(dp1812
g89
g90
ssg71
g1801
sg64
(lp1813
S':'
asbag57
(g78
g59
NtRp1814
(dp1815
g62
(dp1816
sg71
g1801
sg64
(lp1817
g57
(g58
g59
NtRp1818
(dp1819
g62
(dp1820
g70
I4
ssg71
g1814
sg64
(lp1821
g100
asbasbasbag57
(g73
g59
NtRp1822
(dp1823
g62
(dp1824
sg71
g847
sg64
(lp1825
g57
(g78
g59
NtRp1826
(dp1827
g62
(dp1828
g82
g83
ssg71
g1822
sg64
(lp1829
S'wsgi_multithread'
p1830
asbag57
(g78
g59
NtRp1831
(dp1832
g62
(dp1833
g89
g90
ssg71
g1822
sg64
(lp1834
S':'
asbag57
(g78
g59
NtRp1835
(dp1836
g62
(dp1837
sg71
g1822
sg64
(lp1838
g57
(g58
g59
NtRp1839
(dp1840
g62
(dp1841
g70
I4
ssg71
g1835
sg64
(lp1842
S'True'
p1843
asbasbasbag57
(g73
g59
NtRp1844
(dp1845
g62
(dp1846
sg71
g847
sg64
(lp1847
g57
(g78
g59
NtRp1848
(dp1849
g62
(dp1850
g82
g83
ssg71
g1844
sg64
(lp1851
S'wsgi_run_once'
p1852
asbag57
(g78
g59
NtRp1853
(dp1854
g62
(dp1855
g89
g90
ssg71
g1844
sg64
(lp1856
S':'
asbag57
(g78
g59
NtRp1857
(dp1858
g62
(dp1859
sg71
g1844
sg64
(lp1860
g57
(g58
g59
NtRp1861
(dp1862
g62
(dp1863
g70
I4
ssg71
g1857
sg64
(lp1864
g100
asbasbasbag57
(g73
g59
NtRp1865
(dp1866
g62
(dp1867
sg71
g847
sg64
(lp1868
g57
(g78
g59
NtRp1869
(dp1870
g62
(dp1871
g82
g83
ssg71
g1865
sg64
(lp1872
S'wsgi_url_scheme'
p1873
asbag57
(g78
g59
NtRp1874
(dp1875
g62
(dp1876
g89
g90
ssg71
g1865
sg64
(lp1877
S':'
asbag57
(g78
g59
NtRp1878
(dp1879
g62
(dp1880
sg71
g1865
sg64
(lp1881
g57
(g58
g59
NtRp1882
(dp1883
g62
(dp1884
g70
I4
ssg71
g1878
sg64
(lp1885
S'http'
p1886
asbasbasbag57
(g73
g59
NtRp1887
(dp1888
g62
(dp1889
sg71
g847
sg64
(lp1890
g57
(g78
g59
NtRp1891
(dp1892
g62
(dp1893
g82
g83
ssg71
g1887
sg64
(lp1894
S'wsgi_version'
p1895
asbag57
(g78
g59
NtRp1896
(dp1897
g62
(dp1898
g89
g90
ssg71
g1887
sg64
(lp1899
S':'
asbag57
(g78
g59
NtRp1900
(dp1901
g62
(dp1902
sg71
g1887
sg64
(lp1903
g57
(g58
g59
NtRp1904
(dp1905
g62
(dp1906
g70
I4
ssg71
g1900
sg64
(lp1907
g57
(g66
g59
NtRp1908
(dp1909
g62
(dp1910
g70
I3
ssg71
Nsg64
(lp1911
g57
(g73
g59
NtRp1912
(dp1913
g62
(dp1914
sg71
g1908
sg64
(lp1915
g57
(g78
g59
NtRp1916
(dp1917
g62
(dp1918
sg71
g1912
sg64
(lp1919
g57
(g58
g59
NtRp1920
(dp1921
g62
(dp1922
g70
I3
ssg71
g1916
sg64
(lp1923
S'1'
asbasbasbag57
(g73
g59
NtRp1924
(dp1925
g62
(dp1926
sg71
g1908
sg64
(lp1927
g57
(g78
g59
NtRp1928
(dp1929
g62
(dp1930
sg71
g1924
sg64
(lp1931
g57
(g58
g59
NtRp1932
(dp1933
g62
(dp1934
g70
I3
ssg71
g1928
sg64
(lp1935
S'0'
asbasbasbasbasbasbasbasbasbasbasbag57
(g73
g59
NtRp1936
(dp1937
g62
(dp1938
sg71
g67
sg64
(lp1939
g57
(g78
g59
NtRp1940
(dp1941
g62
(dp1942
g82
g83
ssg71
g1936
sg64
(lp1943
S'extension'
p1944
asbag57
(g78
g59
NtRp1945
(dp1946
g62
(dp1947
g89
g90
ssg71
g1936
sg64
(lp1948
S':'
asbag57
(g78
g59
NtRp1949
(dp1950
g62
(dp1951
sg71
g1936
sg64
(lp1952
g57
(g58
g59
NtRp1953
(dp1954
g62
(dp1955
g70
I5
ssg71
g1949
sg64
(lp1956
S'html'
p1957
asbasbasbag57
(g73
g59
NtRp1958
(dp1959
g62
(dp1960
sg71
g67
sg64
(lp1961
g57
(g78
g59
NtRp1962
(dp1963
g62
(dp1964
g82
g83
ssg71
g1958
sg64
(lp1965
S'folder'
p1966
asbag57
(g78
g59
NtRp1967
(dp1968
g62
(dp1969
g89
g90
ssg71
g1958
sg64
(lp1970
S':'
asbag57
(g78
g59
NtRp1971
(dp1972
g62
(dp1973
sg71
g1958
sg64
(lp1974
g57
(g58
g59
NtRp1975
(dp1976
g62
(dp1977
g70
I5
ssg71
g1971
sg64
(lp1978
S'D:\\github-develop\\web2py\\applications\\myapp\\'
p1979
asbasbasbag57
(g73
g59
NtRp1980
(dp1981
g62
(dp1982
sg71
g67
sg64
(lp1983
g57
(g78
g59
NtRp1984
(dp1985
g62
(dp1986
g82
g83
ssg71
g1980
sg64
(lp1987
S'function'
p1988
asbag57
(g78
g59
NtRp1989
(dp1990
g62
(dp1991
g89
g90
ssg71
g1980
sg64
(lp1992
S':'
asbag57
(g78
g59
NtRp1993
(dp1994
g62
(dp1995
sg71
g1980
sg64
(lp1996
g57
(g58
g59
NtRp1997
(dp1998
g62
(dp1999
g70
I5
ssg71
g1993
sg64
(lp2000
S'index'
p2001
asbasbasbag57
(g73
g59
NtRp2002
(dp2003
g62
(dp2004
sg71
g67
sg64
(lp2005
g57
(g78
g59
NtRp2006
(dp2007
g62
(dp2008
g82
g83
ssg71
g2002
sg64
(lp2009
S'get_vars'
p2010
asbag57
(g78
g59
NtRp2011
(dp2012
g62
(dp2013
g89
g90
ssg71
g2002
sg64
(lp2014
S':'
asbag57
(g78
g59
NtRp2015
(dp2016
g62
(dp2017
sg71
g2002
sg64
(lp2018
g57
(g58
g59
NtRp2019
(dp2020
g62
(dp2021
g70
I5
ssg71
g2015
sg64
(lp2022
g57
(g66
g59
NtRp2023
(dp2024
g62
(dp2025
g70
I4
ssg71
Nsg64
(lp2026
sbasbasbasbag57
(g73
g59
NtRp2027
(dp2028
g62
(dp2029
sg71
g67
sg64
(lp2030
g57
(g78
g59
NtRp2031
(dp2032
g62
(dp2033
g82
g83
ssg71
g2027
sg64
(lp2034
S'global_settings'
p2035
asbag57
(g78
g59
NtRp2036
(dp2037
g62
(dp2038
g89
g90
ssg71
g2027
sg64
(lp2039
S':'
asbag57
(g78
g59
NtRp2040
(dp2041
g62
(dp2042
sg71
g2027
sg64
(lp2043
g57
(g58
g59
NtRp2044
(dp2045
g62
(dp2046
g70
I5
ssg71
g2040
sg64
(lp2047
g57
(g66
g59
NtRp2048
(dp2049
g62
(dp2050
g70
I4
ssg71
Nsg64
(lp2051
g57
(g73
g59
NtRp2052
(dp2053
g62
(dp2054
sg71
g2048
sg64
(lp2055
g57
(g78
g59
NtRp2056
(dp2057
g62
(dp2058
g82
g83
ssg71
g2052
sg64
(lp2059
g859
asbag57
(g78
g59
NtRp2060
(dp2061
g62
(dp2062
g89
g90
ssg71
g2052
sg64
(lp2063
S':'
asbag57
(g78
g59
NtRp2064
(dp2065
g62
(dp2066
sg71
g2052
sg64
(lp2067
g57
(g58
g59
NtRp2068
(dp2069
g62
(dp2070
g70
I4
ssg71
g2064
sg64
(lp2071
S"set(['D:\\\\github-develop\\\\web2py\\\\applications\\\\welcome\\\\', 'D:\\\\github-develop\\\\web2py\\\\applications\\\\admin\\\\', 'D:\\\\github-develop\\\\web2py\\\\applications\\\\myapp\\\\'])"
p2072
asbasbasbag57
(g73
g59
NtRp2073
(dp2074
g62
(dp2075
sg71
g2048
sg64
(lp2076
g57
(g78
g59
NtRp2077
(dp2078
g62
(dp2079
g82
g83
ssg71
g2073
sg64
(lp2080
g881
asbag57
(g78
g59
NtRp2081
(dp2082
g62
(dp2083
g89
g90
ssg71
g2073
sg64
(lp2084
S':'
asbag57
(g78
g59
NtRp2085
(dp2086
g62
(dp2087
sg71
g2073
sg64
(lp2088
g57
(g58
g59
NtRp2089
(dp2090
g62
(dp2091
g70
I4
ssg71
g2085
sg64
(lp2092
g894
asbasbasbag57
(g73
g59
NtRp2093
(dp2094
g62
(dp2095
sg71
g2048
sg64
(lp2096
g57
(g78
g59
NtRp2097
(dp2098
g62
(dp2099
g82
g83
ssg71
g2093
sg64
(lp2100
g903
asbag57
(g78
g59
NtRp2101
(dp2102
g62
(dp2103
g89
g90
ssg71
g2093
sg64
(lp2104
S':'
asbag57
(g78
g59
NtRp2105
(dp2106
g62
(dp2107
sg71
g2093
sg64
(lp2108
g57
(g58
g59
NtRp2109
(dp2110
g62
(dp2111
g70
I4
ssg71
g2105
sg64
(lp2112
g57
(g66
g59
NtRp2113
(dp2114
g62
(dp2115
g70
I3
ssg71
Nsg64
(lp2116
sbasbasbasbag57
(g73
g59
NtRp2117
(dp2118
g62
(dp2119
sg71
g2048
sg64
(lp2120
g57
(g78
g59
NtRp2121
(dp2122
g62
(dp2123
g82
g83
ssg71
g2117
sg64
(lp2124
g928
asbag57
(g78
g59
NtRp2125
(dp2126
g62
(dp2127
g89
g90
ssg71
g2117
sg64
(lp2128
S':'
asbag57
(g78
g59
NtRp2129
(dp2130
g62
(dp2131
sg71
g2117
sg64
(lp2132
g57
(g58
g59
NtRp2133
(dp2134
g62
(dp2135
g70
I4
ssg71
g2129
sg64
(lp2136
S"<Values at 0x31b6198: {'verbose': False, 'ip': '127.0.0.1', 'with_scheduler': False, 'ips': ['192.168.0.20'], 'shutdown_timeout': 5, 'taskbar': False, 'port': 8000, 'maxthreads': None, 'softcron': False, 'server_name': 'key', 'bpython': False, 'nogui': False, 'pid_filename': 'httpserver.pid', 'extcron': False, 'runcron': False, 'run_system_tests': False, 'test': None, 'folder': 'D:\\\\github-develop\\\\web2py', 'config': '', 'import_models': False, 'winservice': '', 'shell': None, 'run': '', 'log_filename': 'httpserver.log', 'debuglevel': 30, 'args': [''], 'socket_timeout': 5, 'ssl_ca_certificate': None, 'scheduler': None, 'profiler_filename': None, 'ssl_private_key': '', 'scheduler_groups': None, 'password': '<ask>', 'request_queue_size': 5, 'ssl_certificate': '', 'cronjob': False, 'numthreads': None, 'quiet': False, 'interfaces': None, 'minthreads': None, 'timeout': 10, 'plain': False, 'nobanner': False}>"
p2137
asbasbasbag57
(g73
g59
NtRp2138
(dp2139
g62
(dp2140
sg71
g2048
sg64
(lp2141
g57
(g78
g59
NtRp2142
(dp2143
g62
(dp2144
g82
g83
ssg71
g2138
sg64
(lp2145
g950
asbag57
(g78
g59
NtRp2146
(dp2147
g62
(dp2148
g89
g90
ssg71
g2138
sg64
(lp2149
S':'
asbag57
(g78
g59
NtRp2150
(dp2151
g62
(dp2152
sg71
g2138
sg64
(lp2153
g57
(g58
g59
NtRp2154
(dp2155
g62
(dp2156
g70
I4
ssg71
g2150
sg64
(lp2157
S'set([])'
p2158
asbasbasbag57
(g73
g59
NtRp2159
(dp2160
g62
(dp2161
sg71
g2048
sg64
(lp2162
g57
(g78
g59
NtRp2163
(dp2164
g62
(dp2165
g82
g83
ssg71
g2159
sg64
(lp2166
g972
asbag57
(g78
g59
NtRp2167
(dp2168
g62
(dp2169
g89
g90
ssg71
g2159
sg64
(lp2170
S':'
asbag57
(g78
g59
NtRp2171
(dp2172
g62
(dp2173
sg71
g2159
sg64
(lp2174
g57
(g58
g59
NtRp2175
(dp2176
g62
(dp2177
g70
I4
ssg71
g2171
sg64
(lp2178
g100
asbasbasbag57
(g73
g59
NtRp2179
(dp2180
g62
(dp2181
sg71
g2048
sg64
(lp2182
g57
(g78
g59
NtRp2183
(dp2184
g62
(dp2185
g82
g83
ssg71
g2179
sg64
(lp2186
g993
asbag57
(g78
g59
NtRp2187
(dp2188
g62
(dp2189
g89
g90
ssg71
g2179
sg64
(lp2190
S':'
asbag57
(g78
g59
NtRp2191
(dp2192
g62
(dp2193
sg71
g2179
sg64
(lp2194
g57
(g58
g59
NtRp2195
(dp2196
g62
(dp2197
g70
I4
ssg71
g2191
sg64
(lp2198
g1006
asbasbasbag57
(g73
g59
NtRp2199
(dp2200
g62
(dp2201
sg71
g2048
sg64
(lp2202
g57
(g78
g59
NtRp2203
(dp2204
g62
(dp2205
g82
g83
ssg71
g2199
sg64
(lp2206
g1213
asbag57
(g78
g59
NtRp2207
(dp2208
g62
(dp2209
g89
g90
ssg71
g2199
sg64
(lp2210
S':'
asbag57
(g78
g59
NtRp2211
(dp2212
g62
(dp2213
sg71
g2199
sg64
(lp2214
g57
(g58
g59
NtRp2215
(dp2216
g62
(dp2217
g70
I4
ssg71
g2211
sg64
(lp2218
g100
asbasbasbag57
(g73
g59
NtRp2219
(dp2220
g62
(dp2221
sg71
g2048
sg64
(lp2222
g57
(g78
g59
NtRp2223
(dp2224
g62
(dp2225
g82
g83
ssg71
g2219
sg64
(lp2226
g1234
asbag57
(g78
g59
NtRp2227
(dp2228
g62
(dp2229
g89
g90
ssg71
g2219
sg64
(lp2230
S':'
asbag57
(g78
g59
NtRp2231
(dp2232
g62
(dp2233
sg71
g2219
sg64
(lp2234
g57
(g58
g59
NtRp2235
(dp2236
g62
(dp2237
g70
I4
ssg71
g2231
sg64
(lp2238
g100
asbasbasbag57
(g73
g59
NtRp2239
(dp2240
g62
(dp2241
sg71
g2048
sg64
(lp2242
g57
(g78
g59
NtRp2243
(dp2244
g62
(dp2245
g82
g83
ssg71
g2239
sg64
(lp2246
g1255
asbag57
(g78
g59
NtRp2247
(dp2248
g62
(dp2249
g89
g90
ssg71
g2239
sg64
(lp2250
S':'
asbag57
(g78
g59
NtRp2251
(dp2252
g62
(dp2253
sg71
g2239
sg64
(lp2254
g57
(g58
g59
NtRp2255
(dp2256
g62
(dp2257
g70
I4
ssg71
g2251
sg64
(lp2258
g57
(g66
g59
NtRp2259
(dp2260
g62
(dp2261
g70
I3
ssg71
Nsg64
(lp2262
g57
(g73
g59
NtRp2263
(dp2264
g62
(dp2265
sg71
g2259
sg64
(lp2266
g57
(g78
g59
NtRp2267
(dp2268
g62
(dp2269
sg71
g2263
sg64
(lp2270
g57
(g58
g59
NtRp2271
(dp2272
g62
(dp2273
g70
I3
ssg71
g2267
sg64
(lp2274
g1284
asbasbasbag57
(g73
g59
NtRp2275
(dp2276
g62
(dp2277
sg71
g2259
sg64
(lp2278
g57
(g78
g59
NtRp2279
(dp2280
g62
(dp2281
sg71
g2275
sg64
(lp2282
g57
(g58
g59
NtRp2283
(dp2284
g62
(dp2285
g70
I3
ssg71
g2279
sg64
(lp2286
g1297
asbasbasbag57
(g73
g59
NtRp2287
(dp2288
g62
(dp2289
sg71
g2259
sg64
(lp2290
g57
(g78
g59
NtRp2291
(dp2292
g62
(dp2293
sg71
g2287
sg64
(lp2294
g57
(g58
g59
NtRp2295
(dp2296
g62
(dp2297
g70
I3
ssg71
g2291
sg64
(lp2298
g1310
asbasbasbag57
(g73
g59
NtRp2299
(dp2300
g62
(dp2301
sg71
g2259
sg64
(lp2302
g57
(g78
g59
NtRp2303
(dp2304
g62
(dp2305
sg71
g2299
sg64
(lp2306
g57
(g58
g59
NtRp2307
(dp2308
g62
(dp2309
g70
I3
ssg71
g2303
sg64
(lp2310
g1323
asbasbasbag57
(g73
g59
NtRp2311
(dp2312
g62
(dp2313
sg71
g2259
sg64
(lp2314
g57
(g78
g59
NtRp2315
(dp2316
g62
(dp2317
sg71
g2311
sg64
(lp2318
g57
(g58
g59
NtRp2319
(dp2320
g62
(dp2321
g70
I3
ssg71
g2315
sg64
(lp2322
g1336
asbasbasbag57
(g73
g59
NtRp2323
(dp2324
g62
(dp2325
sg71
g2259
sg64
(lp2326
g57
(g78
g59
NtRp2327
(dp2328
g62
(dp2329
sg71
g2323
sg64
(lp2330
g57
(g58
g59
NtRp2331
(dp2332
g62
(dp2333
g70
I3
ssg71
g2327
sg64
(lp2334
g1349
asbasbasbag57
(g73
g59
NtRp2335
(dp2336
g62
(dp2337
sg71
g2259
sg64
(lp2338
g57
(g78
g59
NtRp2339
(dp2340
g62
(dp2341
sg71
g2335
sg64
(lp2342
g57
(g58
g59
NtRp2343
(dp2344
g62
(dp2345
g70
I3
ssg71
g2339
sg64
(lp2346
g1362
asbasbasbag57
(g73
g59
NtRp2347
(dp2348
g62
(dp2349
sg71
g2259
sg64
(lp2350
g57
(g78
g59
NtRp2351
(dp2352
g62
(dp2353
sg71
g2347
sg64
(lp2354
g57
(g58
g59
NtRp2355
(dp2356
g62
(dp2357
g70
I3
ssg71
g2351
sg64
(lp2358
g1375
asbasbasbag57
(g73
g59
NtRp2359
(dp2360
g62
(dp2361
sg71
g2259
sg64
(lp2362
g57
(g78
g59
NtRp2363
(dp2364
g62
(dp2365
sg71
g2359
sg64
(lp2366
g57
(g58
g59
NtRp2367
(dp2368
g62
(dp2369
g70
I3
ssg71
g2363
sg64
(lp2370
g1388
asbasbasbasbasbasbasbag57
(g73
g59
NtRp2371
(dp2372
g62
(dp2373
sg71
g2048
sg64
(lp2374
g57
(g78
g59
NtRp2375
(dp2376
g62
(dp2377
g82
g83
ssg71
g2371
sg64
(lp2378
g1656
asbag57
(g78
g59
NtRp2379
(dp2380
g62
(dp2381
g89
g90
ssg71
g2371
sg64
(lp2382
S':'
asbag57
(g78
g59
NtRp2383
(dp2384
g62
(dp2385
sg71
g2371
sg64
(lp2386
g57
(g58
g59
NtRp2387
(dp2388
g62
(dp2389
g70
I4
ssg71
g2383
sg64
(lp2390
g57
(g66
g59
NtRp2391
(dp2392
g62
(dp2393
g70
I3
ssg71
Nsg64
(lp2394
g57
(g73
g59
NtRp2395
(dp2396
g62
(dp2397
sg71
g2391
sg64
(lp2398
g57
(g78
g59
NtRp2399
(dp2400
g62
(dp2401
sg71
g2395
sg64
(lp2402
g57
(g58
g59
NtRp2403
(dp2404
g62
(dp2405
g70
I3
ssg71
g2399
sg64
(lp2406
S'2'
asbasbasbag57
(g73
g59
NtRp2407
(dp2408
g62
(dp2409
sg71
g2391
sg64
(lp2410
g57
(g78
g59
NtRp2411
(dp2412
g62
(dp2413
sg71
g2407
sg64
(lp2414
g57
(g58
g59
NtRp2415
(dp2416
g62
(dp2417
g70
I3
ssg71
g2411
sg64
(lp2418
S'3'
asbasbasbag57
(g73
g59
NtRp2419
(dp2420
g62
(dp2421
sg71
g2391
sg64
(lp2422
g57
(g78
g59
NtRp2423
(dp2424
g62
(dp2425
sg71
g2419
sg64
(lp2426
g57
(g58
g59
NtRp2427
(dp2428
g62
(dp2429
g70
I3
ssg71
g2423
sg64
(lp2430
S'2'
asbasbasbag57
(g73
g59
NtRp2431
(dp2432
g62
(dp2433
sg71
g2391
sg64
(lp2434
g57
(g78
g59
NtRp2435
(dp2436
g62
(dp2437
sg71
g2431
sg64
(lp2438
g57
(g58
g59
NtRp2439
(dp2440
g62
(dp2441
g70
I3
ssg71
g2435
sg64
(lp2442
S'datetime.datetime(2012, 12, 17, 15, 3, 30)'
p2443
asbasbasbag57
(g73
g59
NtRp2444
(dp2445
g62
(dp2446
sg71
g2391
sg64
(lp2447
g57
(g78
g59
NtRp2448
(dp2449
g62
(dp2450
sg71
g2444
sg64
(lp2451
g57
(g58
g59
NtRp2452
(dp2453
g62
(dp2454
g70
I3
ssg71
g2448
sg64
(lp2455
g1734
asbasbasbasbasbasbasbasbasbasbasbag57
(g73
g59
NtRp2456
(dp2457
g62
(dp2458
sg71
g67
sg64
(lp2459
g57
(g78
g59
NtRp2460
(dp2461
g62
(dp2462
g82
g83
ssg71
g2456
sg64
(lp2463
S'is_https'
p2464
asbag57
(g78
g59
NtRp2465
(dp2466
g62
(dp2467
g89
g90
ssg71
g2456
sg64
(lp2468
S':'
asbag57
(g78
g59
NtRp2469
(dp2470
g62
(dp2471
sg71
g2456
sg64
(lp2472
g57
(g58
g59
NtRp2473
(dp2474
g62
(dp2475
g70
I5
ssg71
g2469
sg64
(lp2476
g100
asbasbasbag57
(g73
g59
NtRp2477
(dp2478
g62
(dp2479
sg71
g67
sg64
(lp2480
g57
(g78
g59
NtRp2481
(dp2482
g62
(dp2483
g82
g83
ssg71
g2477
sg64
(lp2484
S'is_local'
p2485
asbag57
(g78
g59
NtRp2486
(dp2487
g62
(dp2488
g89
g90
ssg71
g2477
sg64
(lp2489
S':'
asbag57
(g78
g59
NtRp2490
(dp2491
g62
(dp2492
sg71
g2477
sg64
(lp2493
g57
(g58
g59
NtRp2494
(dp2495
g62
(dp2496
g70
I5
ssg71
g2490
sg64
(lp2497
g1843
asbasbasbag57
(g73
g59
NtRp2498
(dp2499
g62
(dp2500
sg71
g67
sg64
(lp2501
g57
(g78
g59
NtRp2502
(dp2503
g62
(dp2504
g82
g83
ssg71
g2498
sg64
(lp2505
S'is_restful'
p2506
asbag57
(g78
g59
NtRp2507
(dp2508
g62
(dp2509
g89
g90
ssg71
g2498
sg64
(lp2510
S':'
asbag57
(g78
g59
NtRp2511
(dp2512
g62
(dp2513
sg71
g2498
sg64
(lp2514
g57
(g58
g59
NtRp2515
(dp2516
g62
(dp2517
g70
I5
ssg71
g2511
sg64
(lp2518
g100
asbasbasbag57
(g73
g59
NtRp2519
(dp2520
g62
(dp2521
sg71
g67
sg64
(lp2522
g57
(g78
g59
NtRp2523
(dp2524
g62
(dp2525
g82
g83
ssg71
g2519
sg64
(lp2526
S'now'
p2527
asbag57
(g78
g59
NtRp2528
(dp2529
g62
(dp2530
g89
g90
ssg71
g2519
sg64
(lp2531
S':'
asbag57
(g78
g59
NtRp2532
(dp2533
g62
(dp2534
sg71
g2519
sg64
(lp2535
g57
(g58
g59
NtRp2536
(dp2537
g62
(dp2538
g70
I5
ssg71
g2532
sg64
(lp2539
S'datetime.datetime(2013, 2, 16, 23, 2, 42, 965000)'
p2540
asbasbasbag57
(g73
g59
NtRp2541
(dp2542
g62
(dp2543
sg71
g67
sg64
(lp2544
g57
(g78
g59
NtRp2545
(dp2546
g62
(dp2547
g82
g83
ssg71
g2541
sg64
(lp2548
S'post_vars'
p2549
asbag57
(g78
g59
NtRp2550
(dp2551
g62
(dp2552
g89
g90
ssg71
g2541
sg64
(lp2553
S':'
asbag57
(g78
g59
NtRp2554
(dp2555
g62
(dp2556
sg71
g2541
sg64
(lp2557
g57
(g58
g59
NtRp2558
(dp2559
g62
(dp2560
g70
I5
ssg71
g2554
sg64
(lp2561
g57
(g66
g59
NtRp2562
(dp2563
g62
(dp2564
g70
I4
ssg71
Nsg64
(lp2565
sbasbasbasbag57
(g73
g59
NtRp2566
(dp2567
g62
(dp2568
sg71
g67
sg64
(lp2569
g57
(g78
g59
NtRp2570
(dp2571
g62
(dp2572
g82
g83
ssg71
g2566
sg64
(lp2573
S'raw_args'
p2574
asbag57
(g78
g59
NtRp2575
(dp2576
g62
(dp2577
g89
g90
ssg71
g2566
sg64
(lp2578
S':'
asbag57
(g78
g59
NtRp2579
(dp2580
g62
(dp2581
sg71
g2566
sg64
(lp2582
g57
(g58
g59
NtRp2583
(dp2584
g62
(dp2585
g70
I5
ssg71
g2579
sg64
(lp2586
S''
asbasbasbag57
(g73
g59
NtRp2587
(dp2588
g62
(dp2589
sg71
g67
sg64
(lp2590
g57
(g78
g59
NtRp2591
(dp2592
g62
(dp2593
g82
g83
ssg71
g2587
sg64
(lp2594
S'raw_extension'
p2595
asbag57
(g78
g59
NtRp2596
(dp2597
g62
(dp2598
g89
g90
ssg71
g2587
sg64
(lp2599
S':'
asbag57
(g78
g59
NtRp2600
(dp2601
g62
(dp2602
sg71
g2587
sg64
(lp2603
g57
(g58
g59
NtRp2604
(dp2605
g62
(dp2606
g70
I5
ssg71
g2600
sg64
(lp2607
S'None'
p2608
asbasbasbag57
(g73
g59
NtRp2609
(dp2610
g62
(dp2611
sg71
g67
sg64
(lp2612
g57
(g78
g59
NtRp2613
(dp2614
g62
(dp2615
g82
g83
ssg71
g2609
sg64
(lp2616
S'url'
p2617
asbag57
(g78
g59
NtRp2618
(dp2619
g62
(dp2620
g89
g90
ssg71
g2609
sg64
(lp2621
S':'
asbag57
(g78
g59
NtRp2622
(dp2623
g62
(dp2624
sg71
g2609
sg64
(lp2625
g57
(g58
g59
NtRp2626
(dp2627
g62
(dp2628
g70
I5
ssg71
g2622
sg64
(lp2629
g1410
asbasbasbag57
(g73
g59
NtRp2630
(dp2631
g62
(dp2632
sg71
g67
sg64
(lp2633
g57
(g78
g59
NtRp2634
(dp2635
g62
(dp2636
g82
g83
ssg71
g2630
sg64
(lp2637
S'utcnow'
p2638
asbag57
(g78
g59
NtRp2639
(dp2640
g62
(dp2641
g89
g90
ssg71
g2630
sg64
(lp2642
S':'
asbag57
(g78
g59
NtRp2643
(dp2644
g62
(dp2645
sg71
g2630
sg64
(lp2646
g57
(g58
g59
NtRp2647
(dp2648
g62
(dp2649
g70
I5
ssg71
g2643
sg64
(lp2650
S'datetime.datetime(2013, 2, 16, 19, 2, 42, 965000)'
p2651
asbasbasbag57
(g73
g59
NtRp2652
(dp2653
g62
(dp2654
sg71
g67
sg64
(lp2655
g57
(g78
g59
NtRp2656
(dp2657
g62
(dp2658
g82
g83
ssg71
g2652
sg64
(lp2659
S'uuid'
p2660
asbag57
(g78
g59
NtRp2661
(dp2662
g62
(dp2663
g89
g90
ssg71
g2652
sg64
(lp2664
S':'
asbag57
(g78
g59
NtRp2665
(dp2666
g62
(dp2667
sg71
g2652
sg64
(lp2668
g57
(g58
g59
NtRp2669
(dp2670
g62
(dp2671
g70
I5
ssg71
g2665
sg64
(lp2672
S'myapp/127.0.0.1.2013-02-16.23-02-42.7779da23-b775-458d-abc6-951d5a4c85c7'
p2673
asbasbasbag57
(g73
g59
NtRp2674
(dp2675
g62
(dp2676
sg71
g67
sg64
(lp2677
g57
(g78
g59
NtRp2678
(dp2679
g62
(dp2680
g82
g83
ssg71
g2674
sg64
(lp2681
S'vars'
p2682
asbag57
(g78
g59
NtRp2683
(dp2684
g62
(dp2685
g89
g90
ssg71
g2674
sg64
(lp2686
S':'
asbag57
(g78
g59
NtRp2687
(dp2688
g62
(dp2689
sg71
g2674
sg64
(lp2690
g57
(g58
g59
NtRp2691
(dp2692
g62
(dp2693
g70
I5
ssg71
g2687
sg64
(lp2694
g57
(g66
g59
NtRp2695
(dp2696
g62
(dp2697
g70
I4
ssg71
Nsg64
(lp2698
sbasbasbasbag57
(g73
g59
NtRp2699
(dp2700
g62
(dp2701
sg71
g67
sg64
(lp2702
g57
(g78
g59
NtRp2703
(dp2704
g62
(dp2705
g82
g83
ssg71
g2699
sg64
(lp2706
S'wsgi'
p2707
asbag57
(g78
g59
NtRp2708
(dp2709
g62
(dp2710
g89
g90
ssg71
g2699
sg64
(lp2711
S':'
asbag57
(g78
g59
NtRp2712
(dp2713
g62
(dp2714
sg71
g2699
sg64
(lp2715
g57
(g58
g59
NtRp2716
(dp2717
g62
(dp2718
g70
I5
ssg71
g2712
sg64
(lp2719
g57
(g66
g59
NtRp2720
(dp2721
g62
(dp2722
g70
I4
ssg71
Nsg64
(lp2723
g57
(g73
g59
NtRp2724
(dp2725
g62
(dp2726
sg71
g2720
sg64
(lp2727
g57
(g78
g59
NtRp2728
(dp2729
g62
(dp2730
g82
g83
ssg71
g2724
sg64
(lp2731
S'environ'
p2732
asbag57
(g78
g59
NtRp2733
(dp2734
g62
(dp2735
g89
g90
ssg71
g2724
sg64
(lp2736
S':'
asbag57
(g78
g59
NtRp2737
(dp2738
g62
(dp2739
sg71
g2724
sg64
(lp2740
g57
(g58
g59
NtRp2741
(dp2742
g62
(dp2743
g70
I4
ssg71
g2737
sg64
(lp2744
g57
(g66
g59
NtRp2745
(dp2746
g62
(dp2747
g70
I3
ssg71
Nsg64
(lp2748
g57
(g73
g59
NtRp2749
(dp2750
g62
(dp2751
sg71
g2745
sg64
(lp2752
g57
(g78
g59
NtRp2753
(dp2754
g62
(dp2755
g82
g83
ssg71
g2749
sg64
(lp2756
S'HTTP_ACCEPT'
p2757
asbag57
(g78
g59
NtRp2758
(dp2759
g62
(dp2760
g89
g90
ssg71
g2749
sg64
(lp2761
S':'
asbag57
(g78
g59
NtRp2762
(dp2763
g62
(dp2764
sg71
g2749
sg64
(lp2765
g57
(g58
g59
NtRp2766
(dp2767
g62
(dp2768
g70
I3
ssg71
g2762
sg64
(lp2769
g1028
asbasbasbag57
(g73
g59
NtRp2770
(dp2771
g62
(dp2772
sg71
g2745
sg64
(lp2773
g57
(g78
g59
NtRp2774
(dp2775
g62
(dp2776
g82
g83
ssg71
g2770
sg64
(lp2777
S'HTTP_ACCEPT_CHARSET'
p2778
asbag57
(g78
g59
NtRp2779
(dp2780
g62
(dp2781
g89
g90
ssg71
g2770
sg64
(lp2782
S':'
asbag57
(g78
g59
NtRp2783
(dp2784
g62
(dp2785
sg71
g2770
sg64
(lp2786
g57
(g58
g59
NtRp2787
(dp2788
g62
(dp2789
g70
I3
ssg71
g2783
sg64
(lp2790
g1050
asbasbasbag57
(g73
g59
NtRp2791
(dp2792
g62
(dp2793
sg71
g2745
sg64
(lp2794
g57
(g78
g59
NtRp2795
(dp2796
g62
(dp2797
g82
g83
ssg71
g2791
sg64
(lp2798
S'HTTP_ACCEPT_ENCODING'
p2799
asbag57
(g78
g59
NtRp2800
(dp2801
g62
(dp2802
g89
g90
ssg71
g2791
sg64
(lp2803
S':'
asbag57
(g78
g59
NtRp2804
(dp2805
g62
(dp2806
sg71
g2791
sg64
(lp2807
g57
(g58
g59
NtRp2808
(dp2809
g62
(dp2810
g70
I3
ssg71
g2804
sg64
(lp2811
g1072
asbasbasbag57
(g73
g59
NtRp2812
(dp2813
g62
(dp2814
sg71
g2745
sg64
(lp2815
g57
(g78
g59
NtRp2816
(dp2817
g62
(dp2818
g82
g83
ssg71
g2812
sg64
(lp2819
S'HTTP_ACCEPT_LANGUAGE'
p2820
asbag57
(g78
g59
NtRp2821
(dp2822
g62
(dp2823
g89
g90
ssg71
g2812
sg64
(lp2824
S':'
asbag57
(g78
g59
NtRp2825
(dp2826
g62
(dp2827
sg71
g2812
sg64
(lp2828
g57
(g58
g59
NtRp2829
(dp2830
g62
(dp2831
g70
I3
ssg71
g2825
sg64
(lp2832
g1094
asbasbasbag57
(g73
g59
NtRp2833
(dp2834
g62
(dp2835
sg71
g2745
sg64
(lp2836
g57
(g78
g59
NtRp2837
(dp2838
g62
(dp2839
g82
g83
ssg71
g2833
sg64
(lp2840
S'HTTP_CACHE_CONTROL'
p2841
asbag57
(g78
g59
NtRp2842
(dp2843
g62
(dp2844
g89
g90
ssg71
g2833
sg64
(lp2845
S':'
asbag57
(g78
g59
NtRp2846
(dp2847
g62
(dp2848
sg71
g2833
sg64
(lp2849
g57
(g58
g59
NtRp2850
(dp2851
g62
(dp2852
g70
I3
ssg71
g2846
sg64
(lp2853
g1116
asbasbasbag57
(g73
g59
NtRp2854
(dp2855
g62
(dp2856
sg71
g2745
sg64
(lp2857
g57
(g78
g59
NtRp2858
(dp2859
g62
(dp2860
g82
g83
ssg71
g2854
sg64
(lp2861
S'HTTP_CONNECTION'
p2862
asbag57
(g78
g59
NtRp2863
(dp2864
g62
(dp2865
g89
g90
ssg71
g2854
sg64
(lp2866
S':'
asbag57
(g78
g59
NtRp2867
(dp2868
g62
(dp2869
sg71
g2854
sg64
(lp2870
g57
(g58
g59
NtRp2871
(dp2872
g62
(dp2873
g70
I3
ssg71
g2867
sg64
(lp2874
g1138
asbasbasbag57
(g73
g59
NtRp2875
(dp2876
g62
(dp2877
sg71
g2745
sg64
(lp2878
g57
(g78
g59
NtRp2879
(dp2880
g62
(dp2881
g82
g83
ssg71
g2875
sg64
(lp2882
S'HTTP_COOKIE'
p2883
asbag57
(g78
g59
NtRp2884
(dp2885
g62
(dp2886
g89
g90
ssg71
g2875
sg64
(lp2887
S':'
asbag57
(g78
g59
NtRp2888
(dp2889
g62
(dp2890
sg71
g2875
sg64
(lp2891
g57
(g58
g59
NtRp2892
(dp2893
g62
(dp2894
g70
I3
ssg71
g2888
sg64
(lp2895
g1160
asbasbasbag57
(g73
g59
NtRp2896
(dp2897
g62
(dp2898
sg71
g2745
sg64
(lp2899
g57
(g78
g59
NtRp2900
(dp2901
g62
(dp2902
g82
g83
ssg71
g2896
sg64
(lp2903
S'HTTP_HOST'
p2904
asbag57
(g78
g59
NtRp2905
(dp2906
g62
(dp2907
g89
g90
ssg71
g2896
sg64
(lp2908
S':'
asbag57
(g78
g59
NtRp2909
(dp2910
g62
(dp2911
sg71
g2896
sg64
(lp2912
g57
(g58
g59
NtRp2913
(dp2914
g62
(dp2915
g70
I3
ssg71
g2909
sg64
(lp2916
g1182
asbasbasbag57
(g73
g59
NtRp2917
(dp2918
g62
(dp2919
sg71
g2745
sg64
(lp2920
g57
(g78
g59
NtRp2921
(dp2922
g62
(dp2923
g82
g83
ssg71
g2917
sg64
(lp2924
S'HTTP_USER_AGENT'
p2925
asbag57
(g78
g59
NtRp2926
(dp2927
g62
(dp2928
g89
g90
ssg71
g2917
sg64
(lp2929
S':'
asbag57
(g78
g59
NtRp2930
(dp2931
g62
(dp2932
sg71
g2917
sg64
(lp2933
g57
(g58
g59
NtRp2934
(dp2935
g62
(dp2936
g70
I3
ssg71
g2930
sg64
(lp2937
g1204
asbasbasbag57
(g73
g59
NtRp2938
(dp2939
g62
(dp2940
sg71
g2745
sg64
(lp2941
g57
(g78
g59
NtRp2942
(dp2943
g62
(dp2944
g82
g83
ssg71
g2938
sg64
(lp2945
S'PATH_INFO'
p2946
asbag57
(g78
g59
NtRp2947
(dp2948
g62
(dp2949
g89
g90
ssg71
g2938
sg64
(lp2950
S':'
asbag57
(g78
g59
NtRp2951
(dp2952
g62
(dp2953
sg71
g2938
sg64
(lp2954
g57
(g58
g59
NtRp2955
(dp2956
g62
(dp2957
g70
I3
ssg71
g2951
sg64
(lp2958
g1410
asbasbasbag57
(g73
g59
NtRp2959
(dp2960
g62
(dp2961
sg71
g2745
sg64
(lp2962
g57
(g78
g59
NtRp2963
(dp2964
g62
(dp2965
g82
g83
ssg71
g2959
sg64
(lp2966
S'QUERY_STRING'
p2967
asbag57
(g78
g59
NtRp2968
(dp2969
g62
(dp2970
g89
g90
ssg71
g2959
sg64
(lp2971
S':'
asbag57
(g78
g59
NtRp2972
(dp2973
g62
(dp2974
sg71
g2959
sg64
(lp2975
g57
(g58
g59
NtRp2976
(dp2977
g62
(dp2978
g70
I3
ssg71
g2972
sg64
(lp2979
S''
asbasbasbag57
(g73
g59
NtRp2980
(dp2981
g62
(dp2982
sg71
g2745
sg64
(lp2983
g57
(g78
g59
NtRp2984
(dp2985
g62
(dp2986
g82
g83
ssg71
g2980
sg64
(lp2987
S'REMOTE_ADDR'
p2988
asbag57
(g78
g59
NtRp2989
(dp2990
g62
(dp2991
g89
g90
ssg71
g2980
sg64
(lp2992
S':'
asbag57
(g78
g59
NtRp2993
(dp2994
g62
(dp2995
sg71
g2980
sg64
(lp2996
g57
(g58
g59
NtRp2997
(dp2998
g62
(dp2999
g70
I3
ssg71
g2993
sg64
(lp3000
g212
asbasbasbag57
(g73
g59
NtRp3001
(dp3002
g62
(dp3003
sg71
g2745
sg64
(lp3004
g57
(g78
g59
NtRp3005
(dp3006
g62
(dp3007
g82
g83
ssg71
g3001
sg64
(lp3008
S'REMOTE_PORT'
p3009
asbag57
(g78
g59
NtRp3010
(dp3011
g62
(dp3012
g89
g90
ssg71
g3001
sg64
(lp3013
S':'
asbag57
(g78
g59
NtRp3014
(dp3015
g62
(dp3016
sg71
g3001
sg64
(lp3017
g57
(g58
g59
NtRp3018
(dp3019
g62
(dp3020
g70
I3
ssg71
g3014
sg64
(lp3021
g1474
asbasbasbag57
(g73
g59
NtRp3022
(dp3023
g62
(dp3024
sg71
g2745
sg64
(lp3025
g57
(g78
g59
NtRp3026
(dp3027
g62
(dp3028
g82
g83
ssg71
g3022
sg64
(lp3029
S'REQUEST_METHOD'
p3030
asbag57
(g78
g59
NtRp3031
(dp3032
g62
(dp3033
g89
g90
ssg71
g3022
sg64
(lp3034
S':'
asbag57
(g78
g59
NtRp3035
(dp3036
g62
(dp3037
sg71
g3022
sg64
(lp3038
g57
(g58
g59
NtRp3039
(dp3040
g62
(dp3041
g70
I3
ssg71
g3035
sg64
(lp3042
g1496
asbasbasbag57
(g73
g59
NtRp3043
(dp3044
g62
(dp3045
sg71
g2745
sg64
(lp3046
g57
(g78
g59
NtRp3047
(dp3048
g62
(dp3049
g82
g83
ssg71
g3043
sg64
(lp3050
S'REQUEST_URI'
p3051
asbag57
(g78
g59
NtRp3052
(dp3053
g62
(dp3054
g89
g90
ssg71
g3043
sg64
(lp3055
S':'
asbag57
(g78
g59
NtRp3056
(dp3057
g62
(dp3058
sg71
g3043
sg64
(lp3059
g57
(g58
g59
NtRp3060
(dp3061
g62
(dp3062
g70
I3
ssg71
g3056
sg64
(lp3063
g1410
asbasbasbag57
(g73
g59
NtRp3064
(dp3065
g62
(dp3066
sg71
g2745
sg64
(lp3067
g57
(g78
g59
NtRp3068
(dp3069
g62
(dp3070
g82
g83
ssg71
g3064
sg64
(lp3071
S'SCRIPT_NAME'
p3072
asbag57
(g78
g59
NtRp3073
(dp3074
g62
(dp3075
g89
g90
ssg71
g3064
sg64
(lp3076
S':'
asbag57
(g78
g59
NtRp3077
(dp3078
g62
(dp3079
sg71
g3064
sg64
(lp3080
g57
(g58
g59
NtRp3081
(dp3082
g62
(dp3083
g70
I3
ssg71
g3077
sg64
(lp3084
S''
asbasbasbag57
(g73
g59
NtRp3085
(dp3086
g62
(dp3087
sg71
g2745
sg64
(lp3088
g57
(g78
g59
NtRp3089
(dp3090
g62
(dp3091
g82
g83
ssg71
g3085
sg64
(lp3092
S'SERVER_NAME'
p3093
asbag57
(g78
g59
NtRp3094
(dp3095
g62
(dp3096
g89
g90
ssg71
g3085
sg64
(lp3097
S':'
asbag57
(g78
g59
NtRp3098
(dp3099
g62
(dp3100
sg71
g3085
sg64
(lp3101
g57
(g58
g59
NtRp3102
(dp3103
g62
(dp3104
g70
I3
ssg71
g3098
sg64
(lp3105
g1560
asbasbasbag57
(g73
g59
NtRp3106
(dp3107
g62
(dp3108
sg71
g2745
sg64
(lp3109
g57
(g78
g59
NtRp3110
(dp3111
g62
(dp3112
g82
g83
ssg71
g3106
sg64
(lp3113
S'SERVER_PORT'
p3114
asbag57
(g78
g59
NtRp3115
(dp3116
g62
(dp3117
g89
g90
ssg71
g3106
sg64
(lp3118
S':'
asbag57
(g78
g59
NtRp3119
(dp3120
g62
(dp3121
sg71
g3106
sg64
(lp3122
g57
(g58
g59
NtRp3123
(dp3124
g62
(dp3125
g70
I3
ssg71
g3119
sg64
(lp3126
g1582
asbasbasbag57
(g73
g59
NtRp3127
(dp3128
g62
(dp3129
sg71
g2745
sg64
(lp3130
g57
(g78
g59
NtRp3131
(dp3132
g62
(dp3133
g82
g83
ssg71
g3127
sg64
(lp3134
S'SERVER_PROTOCOL'
p3135
asbag57
(g78
g59
NtRp3136
(dp3137
g62
(dp3138
g89
g90
ssg71
g3127
sg64
(lp3139
S':'
asbag57
(g78
g59
NtRp3140
(dp3141
g62
(dp3142
sg71
g3127
sg64
(lp3143
g57
(g58
g59
NtRp3144
(dp3145
g62
(dp3146
g70
I3
ssg71
g3140
sg64
(lp3147
g1604
asbasbasbag57
(g73
g59
NtRp3148
(dp3149
g62
(dp3150
sg71
g2745
sg64
(lp3151
g57
(g78
g59
NtRp3152
(dp3153
g62
(dp3154
g82
g83
ssg71
g3148
sg64
(lp3155
S'SERVER_SOFTWARE'
p3156
asbag57
(g78
g59
NtRp3157
(dp3158
g62
(dp3159
g89
g90
ssg71
g3148
sg64
(lp3160
S':'
asbag57
(g78
g59
NtRp3161
(dp3162
g62
(dp3163
sg71
g3148
sg64
(lp3164
g57
(g58
g59
NtRp3165
(dp3166
g62
(dp3167
g70
I3
ssg71
g3161
sg64
(lp3168
g1626
asbasbasbag57
(g73
g59
NtRp3169
(dp3170
g62
(dp3171
sg71
g2745
sg64
(lp3172
g57
(g78
g59
NtRp3173
(dp3174
g62
(dp3175
g82
g83
ssg71
g3169
sg64
(lp3176
S'wsgi.errors'
p3177
asbag57
(g78
g59
NtRp3178
(dp3179
g62
(dp3180
g89
g90
ssg71
g3169
sg64
(lp3181
S':'
asbag57
(g78
g59
NtRp3182
(dp3183
g62
(dp3184
sg71
g3169
sg64
(lp3185
g57
(g58
g59
NtRp3186
(dp3187
g62
(dp3188
g70
I3
ssg71
g3182
sg64
(lp3189
S"<open file '<stderr>', mode 'w' at 0x004950D0>"
p3190
asbasbasbag57
(g73
g59
NtRp3191
(dp3192
g62
(dp3193
sg71
g2745
sg64
(lp3194
g57
(g78
g59
NtRp3195
(dp3196
g62
(dp3197
g82
g83
ssg71
g3191
sg64
(lp3198
S'wsgi.file_wrapper'
p3199
asbag57
(g78
g59
NtRp3200
(dp3201
g62
(dp3202
g89
g90
ssg71
g3191
sg64
(lp3203
S':'
asbag57
(g78
g59
NtRp3204
(dp3205
g62
(dp3206
sg71
g3191
sg64
(lp3207
g57
(g58
g59
NtRp3208
(dp3209
g62
(dp3210
g70
I3
ssg71
g3204
sg64
(lp3211
S'<class wsgiref.util.FileWrapper at 0x031870A0>'
p3212
asbasbasbag57
(g73
g59
NtRp3213
(dp3214
g62
(dp3215
sg71
g2745
sg64
(lp3216
g57
(g78
g59
NtRp3217
(dp3218
g62
(dp3219
g82
g83
ssg71
g3213
sg64
(lp3220
S'wsgi.input'
p3221
asbag57
(g78
g59
NtRp3222
(dp3223
g62
(dp3224
g89
g90
ssg71
g3213
sg64
(lp3225
S':'
asbag57
(g78
g59
NtRp3226
(dp3227
g62
(dp3228
sg71
g3213
sg64
(lp3229
g57
(g58
g59
NtRp3230
(dp3231
g62
(dp3232
g70
I3
ssg71
g3226
sg64
(lp3233
S'<cStringIO.StringO object at 0x09DD5DC0>'
p3234
asbasbasbag57
(g73
g59
NtRp3235
(dp3236
g62
(dp3237
sg71
g2745
sg64
(lp3238
g57
(g78
g59
NtRp3239
(dp3240
g62
(dp3241
g82
g83
ssg71
g3235
sg64
(lp3242
S'wsgi.multiprocess'
p3243
asbag57
(g78
g59
NtRp3244
(dp3245
g62
(dp3246
g89
g90
ssg71
g3235
sg64
(lp3247
S':'
asbag57
(g78
g59
NtRp3248
(dp3249
g62
(dp3250
sg71
g3235
sg64
(lp3251
g57
(g58
g59
NtRp3252
(dp3253
g62
(dp3254
g70
I3
ssg71
g3248
sg64
(lp3255
g100
asbasbasbag57
(g73
g59
NtRp3256
(dp3257
g62
(dp3258
sg71
g2745
sg64
(lp3259
g57
(g78
g59
NtRp3260
(dp3261
g62
(dp3262
g82
g83
ssg71
g3256
sg64
(lp3263
S'wsgi.multithread'
p3264
asbag57
(g78
g59
NtRp3265
(dp3266
g62
(dp3267
g89
g90
ssg71
g3256
sg64
(lp3268
S':'
asbag57
(g78
g59
NtRp3269
(dp3270
g62
(dp3271
sg71
g3256
sg64
(lp3272
g57
(g58
g59
NtRp3273
(dp3274
g62
(dp3275
g70
I3
ssg71
g3269
sg64
(lp3276
g1843
asbasbasbag57
(g73
g59
NtRp3277
(dp3278
g62
(dp3279
sg71
g2745
sg64
(lp3280
g57
(g78
g59
NtRp3281
(dp3282
g62
(dp3283
g82
g83
ssg71
g3277
sg64
(lp3284
S'wsgi.run_once'
p3285
asbag57
(g78
g59
NtRp3286
(dp3287
g62
(dp3288
g89
g90
ssg71
g3277
sg64
(lp3289
S':'
asbag57
(g78
g59
NtRp3290
(dp3291
g62
(dp3292
sg71
g3277
sg64
(lp3293
g57
(g58
g59
NtRp3294
(dp3295
g62
(dp3296
g70
I3
ssg71
g3290
sg64
(lp3297
g100
asbasbasbag57
(g73
g59
NtRp3298
(dp3299
g62
(dp3300
sg71
g2745
sg64
(lp3301
g57
(g78
g59
NtRp3302
(dp3303
g62
(dp3304
g82
g83
ssg71
g3298
sg64
(lp3305
S'wsgi.url_scheme'
p3306
asbag57
(g78
g59
NtRp3307
(dp3308
g62
(dp3309
g89
g90
ssg71
g3298
sg64
(lp3310
S':'
asbag57
(g78
g59
NtRp3311
(dp3312
g62
(dp3313
sg71
g3298
sg64
(lp3314
g57
(g58
g59
NtRp3315
(dp3316
g62
(dp3317
g70
I3
ssg71
g3311
sg64
(lp3318
g1886
asbasbasbag57
(g73
g59
NtRp3319
(dp3320
g62
(dp3321
sg71
g2745
sg64
(lp3322
g57
(g78
g59
NtRp3323
(dp3324
g62
(dp3325
g82
g83
ssg71
g3319
sg64
(lp3326
S'wsgi.version'
p3327
asbag57
(g78
g59
NtRp3328
(dp3329
g62
(dp3330
g89
g90
ssg71
g3319
sg64
(lp3331
S':'
asbag57
(g78
g59
NtRp3332
(dp3333
g62
(dp3334
sg71
g3319
sg64
(lp3335
g57
(g58
g59
NtRp3336
(dp3337
g62
(dp3338
g70
I3
ssg71
g3332
sg64
(lp3339
S'1'
asbasbasbasbasbasbasbasbasbasbasbasbasbsS'frames'
p3340
(lp3341
(dp3342
S'file'
p3343
S'D:\\github-develop\\web2py\\gluon\\restricted.py'
p3344
sS'dump'
p3345
(dp3346
S'environment'
p3347
S"{'A': <class 'gluon.html.A'>, 'Auth': <class 'gluon.tools.Auth'>, 'B': <class 'gluon.html.B'>, 'BEAUTIFY': <class 'gluon.html.BEAUTIFY'>, 'BODY': <class 'gluon.html.BODY'>, 'BR': <class 'gluon.html.BR'>, 'BUTTON': <class 'gluon.html.BUTTON'>, 'CAT': <class 'gluon.html.CAT'>, 'CENTER': <class 'gluon.html.CENTER'>, 'CLEANUP': <class 'gluon.validators.CLEANUP'>, ...}"
p3348
sS'ccode'
p3349
S'<code object <module> at 097C2338, file "D:\\gith...lications\\myapp\\controllers/default.py", line 12>'
p3350
ssS'lnum'
p3351
I212
sS'lines'
p3352
(dp3353
I207
S'    try:'
p3354
sI208
S'        if isinstance(code, types.CodeType):'
p3355
sI209
S'            ccode = code'
p3356
sI210
S'        else:'
p3357
sI211
S'            ccode = compile2(code, layer)'
p3358
sI212
S'        exec ccode in environment'
p3359
sI213
S'    except HTTP:'
p3360
sI214
S'        raise'
p3361
sI215
S'    except RestrictedError:'
p3362
sI216
S'        # do not encapsulate (obfuscate) the original RestrictedError'
p3363
ssS'call'
p3364
S"(code='# -*- coding: utf-8 -*-\\n# this file is released ...=crud())\\n\\nresponse._vars=response._caller(index)\\n', environment={'A': <class 'gluon.html.A'>, 'Auth': <class 'gluon.tools.Auth'>, 'B': <class 'gluon.html.B'>, 'BEAUTIFY': <class 'gluon.html.BEAUTIFY'>, 'BODY': <class 'gluon.html.BODY'>, 'BR': <class 'gluon.html.BR'>, 'BUTTON': <class 'gluon.html.BUTTON'>, 'CAT': <class 'gluon.html.CAT'>, 'CENTER': <class 'gluon.html.CENTER'>, 'CLEANUP': <class 'gluon.validators.CLEANUP'>, ...}, layer=r'D:\\github-develop\\web2py\\applications\\myapp\\controllers/default.py')"
p3365
sS'func'
p3366
S'restricted'
p3367
sa(dp3368
g3343
S'D:\\github-develop\\web2py\\applications\\myapp\\controllers\\default.py'
p3369
sg3345
(dp3370
sg3351
I79
sg3352
(dp3371
I68
S'    http://..../[app]/default/data/update/[table]/[id]'
p3372
sI69
S'    http://..../[app]/default/data/delete/[table]/[id]'
p3373
sI70
S'    http://..../[app]/default/data/select/[table]'
p3374
sI71
S'    http://..../[app]/default/data/search/[table]'
p3375
sI72
S'    but URLs must be signed, i.e. linked with'
p3376
sI73
S"      A('table',_href=URL('data/tables',user_signature=True))"
p3377
sI74
S'    or with the signed load operator'
p3378
sI75
S"      LOAD('default','data.load',args='tables',ajax=True,user_signature=True)"
p3379
sI76
S'    """'
p3380
sI77
S'    return dict(form=crud())'
p3381
ssg3364
S'()'
p3382
sg3366
S'<module>'
p3383
sa(dp3384
g3343
S'D:\\github-develop\\web2py\\gluon\\globals.py'
p3385
sg3345
(dp3386
S'self'
p3387
S'undefined'
p3388
sS'f'
S'<function index>'
p3389
ssg3351
I193
sg3352
(dp3390
I192
S'        self._vars = None'
p3391
sI193
S'        self._caller = lambda f: f()'
p3392
sI194
S'        self._view_environment = None'
p3393
sI195
S'        self._custom_commit = None'
p3394
sI196
S'        self._custom_rollback = None'
p3395
sI197
S''
sI188
S'        self.menu = []             # used by the default view layout'
p3396
sI189
S'        self.files = []            # used by web2py_ajax.html'
p3397
sI190
S'        self.generic_patterns = []  # patterns to allow generic views'
p3398
sI191
S"        self.delimiters = ('{{', '}}')"
p3399
ssg3364
S'(f=<function index>)'
p3400
sg3366
S'<lambda>'
p3401
sa(dp3402
g3343
S'D:\\github-develop\\web2py\\applications\\myapp\\controllers\\default.py'
p3403
sg3345
(dp3404
sg3351
I14
sg3352
(dp3405
I9
S'## - call exposes all registered services (none by default)'
p3406
sI10
S'#########################################################################'
p3407
sI11
S''
sI12
S'import test'
p3408
sI13
S'def index():'
p3409
sI14
S'    return "Your ip is " + test.tt'
p3410
sI15
S''
sI16
S"'''def index():"
p3411
sI17
S'    """'
p3412
sI18
S'    example action using the internationalization operator T and flash'
p3413
ssg3364
S'()'
p3414
sg3366
g2001
sasS'pyver'
p3415
S'Python 2.7: C:\\Python27\\python.exe'
p3416
sS'session'
p3417
g57
(g58
g59
NtRp3418
(dp3419
g62
(dp3420
sg64
(lp3421
g57
(g66
g59
NtRp3422
(dp3423
g62
(dp3424
g70
I5
ssg71
Nsg64
(lp3425
sbasbsS'etype'
p3426
S"<type 'exceptions.AttributeError'>"
p3427
sS'date'
p3428
S'Sat Feb 16 23:02:42 2013'
p3429
sS'response'
p3430
g57
(g58
g59
NtRp3431
(dp3432
g62
(dp3433
sg64
(lp3434
g57
(g66
g59
NtRp3435
(dp3436
g62
(dp3437
g70
I5
ssg71
Nsg64
(lp3438
g57
(g73
g59
NtRp3439
(dp3440
g62
(dp3441
sg71
g3435
sg64
(lp3442
g57
(g78
g59
NtRp3443
(dp3444
g62
(dp3445
g82
g83
ssg71
g3439
sg64
(lp3446
g155
asbag57
(g78
g59
NtRp3447
(dp3448
g62
(dp3449
g89
g90
ssg71
g3439
sg64
(lp3450
S':'
asbag57
(g78
g59
NtRp3451
(dp3452
g62
(dp3453
sg71
g3439
sg64
(lp3454
g57
(g58
g59
NtRp3455
(dp3456
g62
(dp3457
g70
I5
ssg71
g3451
sg64
(lp3458
S'<cStringIO.StringO object at 0x09DD5BE0>'
p3459
asbasbasbag57
(g73
g59
NtRp3460
(dp3461
g62
(dp3462
sg71
g3435
sg64
(lp3463
g57
(g78
g59
NtRp3464
(dp3465
g62
(dp3466
g82
g83
ssg71
g3460
sg64
(lp3467
g243
asbag57
(g78
g59
NtRp3468
(dp3469
g62
(dp3470
g89
g90
ssg71
g3460
sg64
(lp3471
S':'
asbag57
(g78
g59
NtRp3472
(dp3473
g62
(dp3474
sg71
g3460
sg64
(lp3475
g57
(g58
g59
NtRp3476
(dp3477
g62
(dp3478
g70
I5
ssg71
g3472
sg64
(lp3479
g57
(g66
g59
NtRp3480
(dp3481
g62
(dp3482
g70
I4
ssg71
Nsg64
(lp3483
g57
(g73
g59
NtRp3484
(dp3485
g62
(dp3486
sg71
g3480
sg64
(lp3487
g57
(g78
g59
NtRp3488
(dp3489
g62
(dp3490
g82
g83
ssg71
g3484
sg64
(lp3491
S'session_id_myapp'
p3492
asbag57
(g78
g59
NtRp3493
(dp3494
g62
(dp3495
g89
g90
ssg71
g3484
sg64
(lp3496
S':'
asbag57
(g78
g59
NtRp3497
(dp3498
g62
(dp3499
sg71
g3484
sg64
(lp3500
g57
(g58
g59
NtRp3501
(dp3502
g62
(dp3503
g70
I4
ssg71
g3497
sg64
(lp3504
g475
ag57
(g66
g59
NtRp3505
(dp3506
g62
(dp3507
g70
I3
ssg71
Nsg64
(lp3508
g57
(g73
g59
NtRp3509
(dp3510
g62
(dp3511
sg71
g3505
sg64
(lp3512
g57
(g78
g59
NtRp3513
(dp3514
g62
(dp3515
g82
g83
ssg71
g3509
sg64
(lp3516
g294
asbag57
(g78
g59
NtRp3517
(dp3518
g62
(dp3519
g89
g90
ssg71
g3509
sg64
(lp3520
S':'
asbag57
(g78
g59
NtRp3521
(dp3522
g62
(dp3523
sg71
g3509
sg64
(lp3524
g57
(g58
g59
NtRp3525
(dp3526
g62
(dp3527
g70
I3
ssg71
g3521
sg64
(lp3528
S''
asbasbasbag57
(g73
g59
NtRp3529
(dp3530
g62
(dp3531
sg71
g3505
sg64
(lp3532
g57
(g78
g59
NtRp3533
(dp3534
g62
(dp3535
g82
g83
ssg71
g3529
sg64
(lp3536
g315
asbag57
(g78
g59
NtRp3537
(dp3538
g62
(dp3539
g89
g90
ssg71
g3529
sg64
(lp3540
S':'
asbag57
(g78
g59
NtRp3541
(dp3542
g62
(dp3543
sg71
g3529
sg64
(lp3544
g57
(g58
g59
NtRp3545
(dp3546
g62
(dp3547
g70
I3
ssg71
g3541
sg64
(lp3548
S''
asbasbasbag57
(g73
g59
NtRp3549
(dp3550
g62
(dp3551
sg71
g3505
sg64
(lp3552
g57
(g78
g59
NtRp3553
(dp3554
g62
(dp3555
g82
g83
ssg71
g3549
sg64
(lp3556
g336
asbag57
(g78
g59
NtRp3557
(dp3558
g62
(dp3559
g89
g90
ssg71
g3549
sg64
(lp3560
S':'
asbag57
(g78
g59
NtRp3561
(dp3562
g62
(dp3563
sg71
g3549
sg64
(lp3564
g57
(g58
g59
NtRp3565
(dp3566
g62
(dp3567
g70
I3
ssg71
g3561
sg64
(lp3568
S''
asbasbasbag57
(g73
g59
NtRp3569
(dp3570
g62
(dp3571
sg71
g3505
sg64
(lp3572
g57
(g78
g59
NtRp3573
(dp3574
g62
(dp3575
g82
g83
ssg71
g3569
sg64
(lp3576
g357
asbag57
(g78
g59
NtRp3577
(dp3578
g62
(dp3579
g89
g90
ssg71
g3569
sg64
(lp3580
S':'
asbag57
(g78
g59
NtRp3581
(dp3582
g62
(dp3583
sg71
g3569
sg64
(lp3584
g57
(g58
g59
NtRp3585
(dp3586
g62
(dp3587
g70
I3
ssg71
g3581
sg64
(lp3588
S''
asbasbasbag57
(g73
g59
NtRp3589
(dp3590
g62
(dp3591
sg71
g3505
sg64
(lp3592
g57
(g78
g59
NtRp3593
(dp3594
g62
(dp3595
g82
g83
ssg71
g3589
sg64
(lp3596
g378
asbag57
(g78
g59
NtRp3597
(dp3598
g62
(dp3599
g89
g90
ssg71
g3589
sg64
(lp3600
S':'
asbag57
(g78
g59
NtRp3601
(dp3602
g62
(dp3603
sg71
g3589
sg64
(lp3604
g57
(g58
g59
NtRp3605
(dp3606
g62
(dp3607
g70
I3
ssg71
g3601
sg64
(lp3608
S''
asbasbasbag57
(g73
g59
NtRp3609
(dp3610
g62
(dp3611
sg71
g3505
sg64
(lp3612
g57
(g78
g59
NtRp3613
(dp3614
g62
(dp3615
g82
g83
ssg71
g3609
sg64
(lp3616
g399
asbag57
(g78
g59
NtRp3617
(dp3618
g62
(dp3619
g89
g90
ssg71
g3609
sg64
(lp3620
S':'
asbag57
(g78
g59
NtRp3621
(dp3622
g62
(dp3623
sg71
g3609
sg64
(lp3624
g57
(g58
g59
NtRp3625
(dp3626
g62
(dp3627
g70
I3
ssg71
g3621
sg64
(lp3628
S'/'
asbasbasbag57
(g73
g59
NtRp3629
(dp3630
g62
(dp3631
sg71
g3505
sg64
(lp3632
g57
(g78
g59
NtRp3633
(dp3634
g62
(dp3635
g82
g83
ssg71
g3629
sg64
(lp3636
g420
asbag57
(g78
g59
NtRp3637
(dp3638
g62
(dp3639
g89
g90
ssg71
g3629
sg64
(lp3640
S':'
asbag57
(g78
g59
NtRp3641
(dp3642
g62
(dp3643
sg71
g3629
sg64
(lp3644
g57
(g58
g59
NtRp3645
(dp3646
g62
(dp3647
g70
I3
ssg71
g3641
sg64
(lp3648
S''
asbasbasbag57
(g73
g59
NtRp3649
(dp3650
g62
(dp3651
sg71
g3505
sg64
(lp3652
g57
(g78
g59
NtRp3653
(dp3654
g62
(dp3655
g82
g83
ssg71
g3649
sg64
(lp3656
g441
asbag57
(g78
g59
NtRp3657
(dp3658
g62
(dp3659
g89
g90
ssg71
g3649
sg64
(lp3660
S':'
asbag57
(g78
g59
NtRp3661
(dp3662
g62
(dp3663
sg71
g3649
sg64
(lp3664
g57
(g58
g59
NtRp3665
(dp3666
g62
(dp3667
g70
I3
ssg71
g3661
sg64
(lp3668
S''
asbasbasbasbasbasbasbasbasbasbasbag57
(g73
g59
NtRp3669
(dp3670
g62
(dp3671
sg71
g3435
sg64
(lp3672
g57
(g78
g59
NtRp3673
(dp3674
g62
(dp3675
g82
g83
ssg71
g3669
sg64
(lp3676
S'delimiters'
p3677
asbag57
(g78
g59
NtRp3678
(dp3679
g62
(dp3680
g89
g90
ssg71
g3669
sg64
(lp3681
S':'
asbag57
(g78
g59
NtRp3682
(dp3683
g62
(dp3684
sg71
g3669
sg64
(lp3685
g57
(g58
g59
NtRp3686
(dp3687
g62
(dp3688
g70
I5
ssg71
g3682
sg64
(lp3689
g57
(g66
g59
NtRp3690
(dp3691
g62
(dp3692
g70
I4
ssg71
Nsg64
(lp3693
g57
(g73
g59
NtRp3694
(dp3695
g62
(dp3696
sg71
g3690
sg64
(lp3697
g57
(g78
g59
NtRp3698
(dp3699
g62
(dp3700
sg71
g3694
sg64
(lp3701
g57
(g58
g59
NtRp3702
(dp3703
g62
(dp3704
g70
I4
ssg71
g3698
sg64
(lp3705
S'{{'
p3706
asbasbasbag57
(g73
g59
NtRp3707
(dp3708
g62
(dp3709
sg71
g3690
sg64
(lp3710
g57
(g78
g59
NtRp3711
(dp3712
g62
(dp3713
sg71
g3707
sg64
(lp3714
g57
(g58
g59
NtRp3715
(dp3716
g62
(dp3717
g70
I4
ssg71
g3711
sg64
(lp3718
S'}}'
p3719
asbasbasbasbasbasbasbag57
(g73
g59
NtRp3720
(dp3721
g62
(dp3722
sg71
g3435
sg64
(lp3723
g57
(g78
g59
NtRp3724
(dp3725
g62
(dp3726
g82
g83
ssg71
g3720
sg64
(lp3727
S'files'
p3728
asbag57
(g78
g59
NtRp3729
(dp3730
g62
(dp3731
g89
g90
ssg71
g3720
sg64
(lp3732
S':'
asbag57
(g78
g59
NtRp3733
(dp3734
g62
(dp3735
sg71
g3720
sg64
(lp3736
g57
(g58
g59
NtRp3737
(dp3738
g62
(dp3739
g70
I5
ssg71
g3733
sg64
(lp3740
g57
(g66
g59
NtRp3741
(dp3742
g62
(dp3743
g70
I4
ssg71
Nsg64
(lp3744
sbasbasbasbag57
(g73
g59
NtRp3745
(dp3746
g62
(dp3747
sg71
g3435
sg64
(lp3748
g57
(g78
g59
NtRp3749
(dp3750
g62
(dp3751
g82
g83
ssg71
g3745
sg64
(lp3752
S'flash'
p3753
asbag57
(g78
g59
NtRp3754
(dp3755
g62
(dp3756
g89
g90
ssg71
g3745
sg64
(lp3757
S':'
asbag57
(g78
g59
NtRp3758
(dp3759
g62
(dp3760
sg71
g3745
sg64
(lp3761
g57
(g58
g59
NtRp3762
(dp3763
g62
(dp3764
g70
I5
ssg71
g3758
sg64
(lp3765
S''
asbasbasbag57
(g73
g59
NtRp3766
(dp3767
g62
(dp3768
sg71
g3435
sg64
(lp3769
g57
(g78
g59
NtRp3770
(dp3771
g62
(dp3772
g82
g83
ssg71
g3766
sg64
(lp3773
S'generic_patterns'
p3774
asbag57
(g78
g59
NtRp3775
(dp3776
g62
(dp3777
g89
g90
ssg71
g3766
sg64
(lp3778
S':'
asbag57
(g78
g59
NtRp3779
(dp3780
g62
(dp3781
sg71
g3766
sg64
(lp3782
g57
(g58
g59
NtRp3783
(dp3784
g62
(dp3785
g70
I5
ssg71
g3779
sg64
(lp3786
g57
(g66
g59
NtRp3787
(dp3788
g62
(dp3789
g70
I4
ssg71
Nsg64
(lp3790
g57
(g73
g59
NtRp3791
(dp3792
g62
(dp3793
sg71
g3787
sg64
(lp3794
g57
(g78
g59
NtRp3795
(dp3796
g62
(dp3797
sg71
g3791
sg64
(lp3798
g57
(g58
g59
NtRp3799
(dp3800
g62
(dp3801
g70
I4
ssg71
g3795
sg64
(lp3802
S'*'
asbasbasbasbasbasbasbag57
(g73
g59
NtRp3803
(dp3804
g62
(dp3805
sg71
g3435
sg64
(lp3806
g57
(g78
g59
NtRp3807
(dp3808
g62
(dp3809
g82
g83
ssg71
g3803
sg64
(lp3810
S'google_analytics_id'
p3811
asbag57
(g78
g59
NtRp3812
(dp3813
g62
(dp3814
g89
g90
ssg71
g3803
sg64
(lp3815
S':'
asbag57
(g78
g59
NtRp3816
(dp3817
g62
(dp3818
sg71
g3803
sg64
(lp3819
g57
(g58
g59
NtRp3820
(dp3821
g62
(dp3822
g70
I5
ssg71
g3816
sg64
(lp3823
S'None'
p3824
asbasbasbag57
(g73
g59
NtRp3825
(dp3826
g62
(dp3827
sg71
g3435
sg64
(lp3828
g57
(g78
g59
NtRp3829
(dp3830
g62
(dp3831
g82
g83
ssg71
g3825
sg64
(lp3832
S'headers'
p3833
asbag57
(g78
g59
NtRp3834
(dp3835
g62
(dp3836
g89
g90
ssg71
g3825
sg64
(lp3837
S':'
asbag57
(g78
g59
NtRp3838
(dp3839
g62
(dp3840
sg71
g3825
sg64
(lp3841
g57
(g58
g59
NtRp3842
(dp3843
g62
(dp3844
g70
I5
ssg71
g3838
sg64
(lp3845
g57
(g66
g59
NtRp3846
(dp3847
g62
(dp3848
g70
I4
ssg71
Nsg64
(lp3849
g57
(g73
g59
NtRp3850
(dp3851
g62
(dp3852
sg71
g3846
sg64
(lp3853
g57
(g78
g59
NtRp3854
(dp3855
g62
(dp3856
g82
g83
ssg71
g3850
sg64
(lp3857
S'X-Powered-By'
p3858
asbag57
(g78
g59
NtRp3859
(dp3860
g62
(dp3861
g89
g90
ssg71
g3850
sg64
(lp3862
S':'
asbag57
(g78
g59
NtRp3863
(dp3864
g62
(dp3865
sg71
g3850
sg64
(lp3866
g57
(g58
g59
NtRp3867
(dp3868
g62
(dp3869
g70
I4
ssg71
g3863
sg64
(lp3870
S'web2py'
p3871
asbasbasbasbasbasbasbag57
(g73
g59
NtRp3872
(dp3873
g62
(dp3874
sg71
g3435
sg64
(lp3875
g57
(g78
g59
NtRp3876
(dp3877
g62
(dp3878
g82
g83
ssg71
g3872
sg64
(lp3879
S'logo'
p3880
asbag57
(g78
g59
NtRp3881
(dp3882
g62
(dp3883
g89
g90
ssg71
g3872
sg64
(lp3884
S':'
asbag57
(g78
g59
NtRp3885
(dp3886
g62
(dp3887
sg71
g3872
sg64
(lp3888
g57
(g58
g59
NtRp3889
(dp3890
g62
(dp3891
g70
I5
ssg71
g3885
sg64
(lp3892
g57
(cgluon.html
A
p3893
g59
NtRp3894
(dp3895
g62
(dp3896
S'_class'
p3897
S'brand'
p3898
sS'_href'
p3899
S'http://www.web2py.com/'
p3900
ssg71
Nsg64
(lp3901
g57
(cgluon.html
B
p3902
g59
NtRp3903
(dp3904
g62
(dp3905
sg71
g3894
sg64
(lp3906
S'web'
p3907
ag57
(cgluon.html
SPAN
p3908
g59
NtRp3909
(dp3910
g62
(dp3911
sg71
g3903
sg64
(lp3912
I2
asbaS'py'
p3913
asbacgluon.html
XML_unpickle
p3914
(S's\r\x00\x00\x00&trade;&nbsp;'
tRp3915
asbasbasbasbag57
(g73
g59
NtRp3916
(dp3917
g62
(dp3918
sg71
g3435
sg64
(lp3919
g57
(g78
g59
NtRp3920
(dp3921
g62
(dp3922
g82
g83
ssg71
g3916
sg64
(lp3923
S'menu'
p3924
asbag57
(g78
g59
NtRp3925
(dp3926
g62
(dp3927
g89
g90
ssg71
g3916
sg64
(lp3928
S':'
asbag57
(g78
g59
NtRp3929
(dp3930
g62
(dp3931
sg71
g3916
sg64
(lp3932
g57
(g58
g59
NtRp3933
(dp3934
g62
(dp3935
g70
I5
ssg71
g3929
sg64
(lp3936
g57
(g66
g59
NtRp3937
(dp3938
g62
(dp3939
g70
I4
ssg71
Nsg64
(lp3940
g57
(g73
g59
NtRp3941
(dp3942
g62
(dp3943
sg71
g3937
sg64
(lp3944
g57
(g78
g59
NtRp3945
(dp3946
g62
(dp3947
sg71
g3941
sg64
(lp3948
g57
(g58
g59
NtRp3949
(dp3950
g62
(dp3951
g70
I4
ssg71
g3945
sg64
(lp3952
g57
(g66
g59
NtRp3953
(dp3954
g62
(dp3955
g70
I3
ssg71
Nsg64
(lp3956
g57
(g73
g59
NtRp3957
(dp3958
g62
(dp3959
sg71
g3953
sg64
(lp3960
g57
(g78
g59
NtRp3961
(dp3962
g62
(dp3963
sg71
g3957
sg64
(lp3964
g57
(g58
g59
NtRp3965
(dp3966
g62
(dp3967
g70
I3
ssg71
g3961
sg64
(lp3968
cgluon.languages
lazyT_unpickle
p3969
(S's\x04\x00\x00\x00Home'
tRp3970
asbasbasbag57
(g73
g59
NtRp3971
(dp3972
g62
(dp3973
sg71
g3953
sg64
(lp3974
g57
(g78
g59
NtRp3975
(dp3976
g62
(dp3977
sg71
g3971
sg64
(lp3978
g57
(g58
g59
NtRp3979
(dp3980
g62
(dp3981
g70
I3
ssg71
g3975
sg64
(lp3982
g100
asbasbasbag57
(g73
g59
NtRp3983
(dp3984
g62
(dp3985
sg71
g3953
sg64
(lp3986
g57
(g78
g59
NtRp3987
(dp3988
g62
(dp3989
sg71
g3983
sg64
(lp3990
g57
(g58
g59
NtRp3991
(dp3992
g62
(dp3993
g70
I3
ssg71
g3987
sg64
(lp3994
S'/myapp/default/index'
p3995
asbasbasbag57
(g73
g59
NtRp3996
(dp3997
g62
(dp3998
sg71
g3953
sg64
(lp3999
g57
(g78
g59
NtRp4000
(dp4001
g62
(dp4002
sg71
g3996
sg64
(lp4003
g57
(g58
g59
NtRp4004
(dp4005
g62
(dp4006
g70
I3
ssg71
g4000
sg64
(lp4007
g57
(g66
g59
NtRp4008
(dp4009
g62
(dp4010
g70
I2
ssg71
Nsg64
(lp4011
sbasbasbasbasbasbasbasbag57
(g73
g59
NtRp4012
(dp4013
g62
(dp4014
sg71
g3937
sg64
(lp4015
g57
(g78
g59
NtRp4016
(dp4017
g62
(dp4018
sg71
g4012
sg64
(lp4019
g57
(g58
g59
NtRp4020
(dp4021
g62
(dp4022
g70
I4
ssg71
g4016
sg64
(lp4023
g57
(g66
g59
NtRp4024
(dp4025
g62
(dp4026
g70
I3
ssg71
Nsg64
(lp4027
g57
(g73
g59
NtRp4028
(dp4029
g62
(dp4030
sg71
g4024
sg64
(lp4031
g57
(g78
g59
NtRp4032
(dp4033
g62
(dp4034
sg71
g4028
sg64
(lp4035
g57
(g58
g59
NtRp4036
(dp4037
g62
(dp4038
g70
I3
ssg71
g4032
sg64
(lp4039
g57
(g3908
g59
NtRp4040
(dp4041
g62
(dp4042
g3897
S'highlighted'
p4043
ssg71
Nsg64
(lp4044
g3871
asbasbasbasbag57
(g73
g59
NtRp4045
(dp4046
g62
(dp4047
sg71
g4024
sg64
(lp4048
g57
(g78
g59
NtRp4049
(dp4050
g62
(dp4051
sg71
g4045
sg64
(lp4052
g57
(g58
g59
NtRp4053
(dp4054
g62
(dp4055
g70
I3
ssg71
g4049
sg64
(lp4056
g100
asbasbasbag57
(g73
g59
NtRp4057
(dp4058
g62
(dp4059
sg71
g4024
sg64
(lp4060
g57
(g78
g59
NtRp4061
(dp4062
g62
(dp4063
sg71
g4057
sg64
(lp4064
g57
(g58
g59
NtRp4065
(dp4066
g62
(dp4067
g70
I3
ssg71
g4061
sg64
(lp4068
S'http://web2py.com'
p4069
asbasbasbag57
(g73
g59
NtRp4070
(dp4071
g62
(dp4072
sg71
g4024
sg64
(lp4073
g57
(g78
g59
NtRp4074
(dp4075
g62
(dp4076
sg71
g4070
sg64
(lp4077
g57
(g58
g59
NtRp4078
(dp4079
g62
(dp4080
g70
I3
ssg71
g4074
sg64
(lp4081
g57
(g66
g59
NtRp4082
(dp4083
g62
(dp4084
g70
I2
ssg71
Nsg64
(lp4085
g57
(g73
g59
NtRp4086
(dp4087
g62
(dp4088
sg71
g4082
sg64
(lp4089
g57
(g78
g59
NtRp4090
(dp4091
g62
(dp4092
sg71
g4086
sg64
(lp4093
g57
(g58
g59
NtRp4094
(dp4095
g62
(dp4096
g70
I2
ssg71
g4090
sg64
(lp4097
g57
(g66
g59
NtRp4098
(dp4099
g62
(dp4100
g70
I1
ssg71
Nsg64
(lp4101
g57
(g73
g59
NtRp4102
(dp4103
g62
(dp4104
sg71
g4098
sg64
(lp4105
g57
(g78
g59
NtRp4106
(dp4107
g62
(dp4108
sg71
g4102
sg64
(lp4109
g57
(g58
g59
NtRp4110
(dp4111
g62
(dp4112
g70
I1
ssg71
g4106
sg64
(lp4113
g3969
(S's\x08\x00\x00\x00My Sites'
tRp4114
asbasbasbag57
(g73
g59
NtRp4115
(dp4116
g62
(dp4117
sg71
g4098
sg64
(lp4118
g57
(g78
g59
NtRp4119
(dp4120
g62
(dp4121
sg71
g4115
sg64
(lp4122
g57
(g58
g59
NtRp4123
(dp4124
g62
(dp4125
g70
I1
ssg71
g4119
sg64
(lp4126
I00
asbasbasbag57
(g73
g59
NtRp4127
(dp4128
g62
(dp4129
sg71
g4098
sg64
(lp4130
g57
(g78
g59
NtRp4131
(dp4132
g62
(dp4133
sg71
g4127
sg64
(lp4134
g57
(g58
g59
NtRp4135
(dp4136
g62
(dp4137
g70
I1
ssg71
g4131
sg64
(lp4138
S'/admin/default/site'
p4139
asbasbasbasbasbasbasbag57
(g73
g59
NtRp4140
(dp4141
g62
(dp4142
sg71
g4082
sg64
(lp4143
g57
(g78
g59
NtRp4144
(dp4145
g62
(dp4146
sg71
g4140
sg64
(lp4147
g57
(g58
g59
NtRp4148
(dp4149
g62
(dp4150
g70
I2
ssg71
g4144
sg64
(lp4151
g57
(g66
g59
NtRp4152
(dp4153
g62
(dp4154
g70
I1
ssg71
Nsg64
(lp4155
g57
(g73
g59
NtRp4156
(dp4157
g62
(dp4158
sg71
g4152
sg64
(lp4159
g57
(g78
g59
NtRp4160
(dp4161
g62
(dp4162
sg71
g4156
sg64
(lp4163
g57
(g58
g59
NtRp4164
(dp4165
g62
(dp4166
g70
I1
ssg71
g4160
sg64
(lp4167
g3969
(S's\x08\x00\x00\x00This App'
tRp4168
asbasbasbag57
(g73
g59
NtRp4169
(dp4170
g62
(dp4171
sg71
g4152
sg64
(lp4172
g57
(g78
g59
NtRp4173
(dp4174
g62
(dp4175
sg71
g4169
sg64
(lp4176
g57
(g58
g59
NtRp4177
(dp4178
g62
(dp4179
g70
I1
ssg71
g4173
sg64
(lp4180
I00
asbasbasbag57
(g73
g59
NtRp4181
(dp4182
g62
(dp4183
sg71
g4152
sg64
(lp4184
g57
(g78
g59
NtRp4185
(dp4186
g62
(dp4187
sg71
g4181
sg64
(lp4188
g57
(g58
g59
NtRp4189
(dp4190
g62
(dp4191
g70
I1
ssg71
g4185
sg64
(lp4192
S'/admin/default/design/myapp'
p4193
asbasbasbag57
(g73
g59
NtRp4194
(dp4195
g62
(dp4196
sg71
g4152
sg64
(lp4197
g57
(g78
g59
NtRp4198
(dp4199
g62
(dp4200
sg71
g4194
sg64
(lp4201
g57
(g58
g59
NtRp4202
(dp4203
g62
(dp4204
g70
I1
ssg71
g4198
sg64
(lp4205
(lp4206
(g3969
(S's\n\x00\x00\x00Controller'
tRp4207
I00
S'/admin/default/edit/myapp/controllers/default.py'
tp4208
a(g3969
(S's\x04\x00\x00\x00View'
tRp4209
I00
S'/admin/default/edit/myapp/views/default/index.html'
tp4210
a(g3969
(S's\x06\x00\x00\x00Layout'
tRp4211
I00
S'/admin/default/edit/myapp/views/layout.html'
tp4212
a(g3969
(S's\n\x00\x00\x00Stylesheet'
tRp4213
I00
S'/admin/default/edit/myapp/static/css/web2py.css'
tp4214
a(g3969
(S's\x08\x00\x00\x00DB Model'
tRp4215
I00
S'/admin/default/edit/myapp/models/db.py'
tp4216
a(g3969
(S's\n\x00\x00\x00Menu Model'
tRp4217
I00
S'/admin/default/edit/myapp/models/menu.py'
tp4218
a(g3969
(S's\x08\x00\x00\x00Database'
tRp4219
I00
S'/myapp/appadmin/index'
tp4220
a(g3969
(S's\x06\x00\x00\x00Errors'
tRp4221
I00
S'/admin/default/errors/myapp'
tp4222
a(g3969
(S's\x05\x00\x00\x00About'
tRp4223
I00
S'/admin/default/about/myapp'
tp4224
aasbasbasbasbasbasbasbag57
(g73
g59
NtRp4225
(dp4226
g62
(dp4227
sg71
g4082
sg64
(lp4228
g57
(g78
g59
NtRp4229
(dp4230
g62
(dp4231
sg71
g4225
sg64
(lp4232
g57
(g58
g59
NtRp4233
(dp4234
g62
(dp4235
g70
I2
ssg71
g4229
sg64
(lp4236
g57
(g66
g59
NtRp4237
(dp4238
g62
(dp4239
g70
I1
ssg71
Nsg64
(lp4240
g57
(g73
g59
NtRp4241
(dp4242
g62
(dp4243
sg71
g4237
sg64
(lp4244
g57
(g78
g59
NtRp4245
(dp4246
g62
(dp4247
sg71
g4241
sg64
(lp4248
g57
(g58
g59
NtRp4249
(dp4250
g62
(dp4251
g70
I1
ssg71
g4245
sg64
(lp4252
S'web2py.com'
p4253
asbasbasbag57
(g73
g59
NtRp4254
(dp4255
g62
(dp4256
sg71
g4237
sg64
(lp4257
g57
(g78
g59
NtRp4258
(dp4259
g62
(dp4260
sg71
g4254
sg64
(lp4261
g57
(g58
g59
NtRp4262
(dp4263
g62
(dp4264
g70
I1
ssg71
g4258
sg64
(lp4265
I00
asbasbasbag57
(g73
g59
NtRp4266
(dp4267
g62
(dp4268
sg71
g4237
sg64
(lp4269
g57
(g78
g59
NtRp4270
(dp4271
g62
(dp4272
sg71
g4266
sg64
(lp4273
g57
(g58
g59
NtRp4274
(dp4275
g62
(dp4276
g70
I1
ssg71
g4270
sg64
(lp4277
S'http://www.web2py.com'
p4278
asbasbasbag57
(g73
g59
NtRp4279
(dp4280
g62
(dp4281
sg71
g4237
sg64
(lp4282
g57
(g78
g59
NtRp4283
(dp4284
g62
(dp4285
sg71
g4279
sg64
(lp4286
g57
(g58
g59
NtRp4287
(dp4288
g62
(dp4289
g70
I1
ssg71
g4283
sg64
(lp4290
(lp4291
(g3969
(S's\x08\x00\x00\x00Download'
tRp4292
I00
S'http://www.web2py.com/examples/default/download'
p4293
tp4294
a(g3969
(S's\x07\x00\x00\x00Support'
tRp4295
I00
S'http://www.web2py.com/examples/default/support'
p4296
tp4297
a(g3969
(S's\x04\x00\x00\x00Demo'
tRp4298
I00
S'http://web2py.com/demo_admin'
p4299
tp4300
a(g3969
(S's\x0e\x00\x00\x00Quick Examples'
tRp4301
I00
S'http://web2py.com/examples/default/examples'
p4302
tp4303
a(g3969
(S's\x03\x00\x00\x00FAQ'
tRp4304
I00
S'http://web2py.com/AlterEgo'
p4305
tp4306
a(g3969
(S's\x06\x00\x00\x00Videos'
tRp4307
I00
S'http://www.web2py.com/examples/default/videos/'
p4308
tp4309
a(g3969
(S's\x11\x00\x00\x00Free Applications'
tRp4310
I00
S'http://web2py.com/appliances'
p4311
tp4312
a(g3969
(S's\x07\x00\x00\x00Plugins'
tRp4313
I00
S'http://web2py.com/plugins'
p4314
tp4315
a(g3969
(S's\x07\x00\x00\x00Layouts'
tRp4316
I00
S'http://web2py.com/layouts'
p4317
tp4318
a(g3969
(S's\x07\x00\x00\x00Recipes'
tRp4319
I00
S'http://web2pyslices.com/'
p4320
tp4321
a(g3969
(S's\x08\x00\x00\x00Semantic'
tRp4322
I00
S'http://web2py.com/semantic'
p4323
tp4324
aasbasbasbasbasbasbasbag57
(g73
g59
NtRp4325
(dp4326
g62
(dp4327
sg71
g4082
sg64
(lp4328
g57
(g78
g59
NtRp4329
(dp4330
g62
(dp4331
sg71
g4325
sg64
(lp4332
g57
(g58
g59
NtRp4333
(dp4334
g62
(dp4335
g70
I2
ssg71
g4329
sg64
(lp4336
g57
(g66
g59
NtRp4337
(dp4338
g62
(dp4339
g70
I1
ssg71
Nsg64
(lp4340
g57
(g73
g59
NtRp4341
(dp4342
g62
(dp4343
sg71
g4337
sg64
(lp4344
g57
(g78
g59
NtRp4345
(dp4346
g62
(dp4347
sg71
g4341
sg64
(lp4348
g57
(g58
g59
NtRp4349
(dp4350
g62
(dp4351
g70
I1
ssg71
g4345
sg64
(lp4352
g3969
(S's\r\x00\x00\x00Documentation'
tRp4353
asbasbasbag57
(g73
g59
NtRp4354
(dp4355
g62
(dp4356
sg71
g4337
sg64
(lp4357
g57
(g78
g59
NtRp4358
(dp4359
g62
(dp4360
sg71
g4354
sg64
(lp4361
g57
(g58
g59
NtRp4362
(dp4363
g62
(dp4364
g70
I1
ssg71
g4358
sg64
(lp4365
I00
asbasbasbag57
(g73
g59
NtRp4366
(dp4367
g62
(dp4368
sg71
g4337
sg64
(lp4369
g57
(g78
g59
NtRp4370
(dp4371
g62
(dp4372
sg71
g4366
sg64
(lp4373
g57
(g58
g59
NtRp4374
(dp4375
g62
(dp4376
g70
I1
ssg71
g4370
sg64
(lp4377
S'http://www.web2py.com/book'
p4378
asbasbasbag57
(g73
g59
NtRp4379
(dp4380
g62
(dp4381
sg71
g4337
sg64
(lp4382
g57
(g78
g59
NtRp4383
(dp4384
g62
(dp4385
sg71
g4379
sg64
(lp4386
g57
(g58
g59
NtRp4387
(dp4388
g62
(dp4389
g70
I1
ssg71
g4383
sg64
(lp4390
(lp4391
(g3969
(S's\x07\x00\x00\x00Preface'
tRp4392
I00
S'http://www.web2py.com/book/default/chapter/00'
p4393
tp4394
a(g3969
(S's\x0c\x00\x00\x00Introduction'
tRp4395
I00
S'http://www.web2py.com/book/default/chapter/01'
p4396
tp4397
a(g3969
(S's\x06\x00\x00\x00Python'
tRp4398
I00
S'http://www.web2py.com/book/default/chapter/02'
p4399
tp4400
a(g3969
(S's\x08\x00\x00\x00Overview'
tRp4401
I00
S'http://www.web2py.com/book/default/chapter/03'
p4402
tp4403
a(g3969
(S's\x08\x00\x00\x00The Core'
tRp4404
I00
S'http://www.web2py.com/book/default/chapter/04'
p4405
tp4406
a(g3969
(S's\t\x00\x00\x00The Views'
tRp4407
I00
S'http://www.web2py.com/book/default/chapter/05'
p4408
tp4409
a(g3969
(S's\x08\x00\x00\x00Database'
tRp4410
I00
S'http://www.web2py.com/book/default/chapter/06'
p4411
tp4412
a(g3969
(S's\x14\x00\x00\x00Forms and Validators'
tRp4413
I00
S'http://www.web2py.com/book/default/chapter/07'
p4414
tp4415
a(g3969
(S's\r\x00\x00\x00Email and SMS'
tRp4416
I00
S'http://www.web2py.com/book/default/chapter/08'
p4417
tp4418
a(g3969
(S's\x0e\x00\x00\x00Access Control'
tRp4419
I00
S'http://www.web2py.com/book/default/chapter/09'
p4420
tp4421
a(g3969
(S's\x08\x00\x00\x00Services'
tRp4422
I00
S'http://www.web2py.com/book/default/chapter/10'
p4423
tp4424
a(g3969
(S's\x0c\x00\x00\x00Ajax Recipes'
tRp4425
I00
S'http://www.web2py.com/book/default/chapter/11'
p4426
tp4427
a(g3969
(S's\x16\x00\x00\x00Components and Plugins'
tRp4428
I00
S'http://www.web2py.com/book/default/chapter/12'
p4429
tp4430
a(g3969
(S's\x12\x00\x00\x00Deployment Recipes'
tRp4431
I00
S'http://www.web2py.com/book/default/chapter/13'
p4432
tp4433
a(g3969
(S's\r\x00\x00\x00Other Recipes'
tRp4434
I00
S'http://www.web2py.com/book/default/chapter/14'
p4435
tp4436
a(g3969
(S's\r\x00\x00\x00Buy this book'
tRp4437
I00
S'http://stores.lulu.com/web2py'
p4438
tp4439
aasbasbasbasbasbasbasbag57
(g73
g59
NtRp4440
(dp4441
g62
(dp4442
sg71
g4082
sg64
(lp4443
g57
(g78
g59
NtRp4444
(dp4445
g62
(dp4446
sg71
g4440
sg64
(lp4447
g57
(g58
g59
NtRp4448
(dp4449
g62
(dp4450
g70
I2
ssg71
g4444
sg64
(lp4451
g57
(g66
g59
NtRp4452
(dp4453
g62
(dp4454
g70
I1
ssg71
Nsg64
(lp4455
g57
(g73
g59
NtRp4456
(dp4457
g62
(dp4458
sg71
g4452
sg64
(lp4459
g57
(g78
g59
NtRp4460
(dp4461
g62
(dp4462
sg71
g4456
sg64
(lp4463
g57
(g58
g59
NtRp4464
(dp4465
g62
(dp4466
g70
I1
ssg71
g4460
sg64
(lp4467
g3969
(S's\t\x00\x00\x00Community'
tRp4468
asbasbasbag57
(g73
g59
NtRp4469
(dp4470
g62
(dp4471
sg71
g4452
sg64
(lp4472
g57
(g78
g59
NtRp4473
(dp4474
g62
(dp4475
sg71
g4469
sg64
(lp4476
g57
(g58
g59
NtRp4477
(dp4478
g62
(dp4479
g70
I1
ssg71
g4473
sg64
(lp4480
I00
asbasbasbag57
(g73
g59
NtRp4481
(dp4482
g62
(dp4483
sg71
g4452
sg64
(lp4484
g57
(g78
g59
NtRp4485
(dp4486
g62
(dp4487
sg71
g4481
sg64
(lp4488
g57
(g58
g59
NtRp4489
(dp4490
g62
(dp4491
g70
I1
ssg71
g4485
sg64
(lp4492
Nasbasbasbag57
(g73
g59
NtRp4493
(dp4494
g62
(dp4495
sg71
g4452
sg64
(lp4496
g57
(g78
g59
NtRp4497
(dp4498
g62
(dp4499
sg71
g4493
sg64
(lp4500
g57
(g58
g59
NtRp4501
(dp4502
g62
(dp4503
g70
I1
ssg71
g4497
sg64
(lp4504
(lp4505
(g3969
(S's\x06\x00\x00\x00Groups'
tRp4506
I00
S'http://www.web2py.com/examples/default/usergroups'
p4507
tp4508
a(g3969
(S's\x07\x00\x00\x00Twitter'
tRp4509
I00
S'http://twitter.com/web2py'
p4510
tp4511
a(g3969
(S's\t\x00\x00\x00Live Chat'
tRp4512
I00
S'http://webchat.freenode.net/?channels=web2py'
p4513
tp4514
aasbasbasbasbasbasbasbag57
(g73
g59
NtRp4515
(dp4516
g62
(dp4517
sg71
g4082
sg64
(lp4518
g57
(g78
g59
NtRp4519
(dp4520
g62
(dp4521
sg71
g4515
sg64
(lp4522
g57
(g58
g59
NtRp4523
(dp4524
g62
(dp4525
g70
I2
ssg71
g4519
sg64
(lp4526
g57
(g66
g59
NtRp4527
(dp4528
g62
(dp4529
g70
I1
ssg71
Nsg64
(lp4530
g57
(g73
g59
NtRp4531
(dp4532
g62
(dp4533
sg71
g4527
sg64
(lp4534
g57
(g78
g59
NtRp4535
(dp4536
g62
(dp4537
sg71
g4531
sg64
(lp4538
g57
(g58
g59
NtRp4539
(dp4540
g62
(dp4541
g70
I1
ssg71
g4535
sg64
(lp4542
g3969
(S's\x07\x00\x00\x00Plugins'
tRp4543
asbasbasbag57
(g73
g59
NtRp4544
(dp4545
g62
(dp4546
sg71
g4527
sg64
(lp4547
g57
(g78
g59
NtRp4548
(dp4549
g62
(dp4550
sg71
g4544
sg64
(lp4551
g57
(g58
g59
NtRp4552
(dp4553
g62
(dp4554
g70
I1
ssg71
g4548
sg64
(lp4555
I00
asbasbasbag57
(g73
g59
NtRp4556
(dp4557
g62
(dp4558
sg71
g4527
sg64
(lp4559
g57
(g78
g59
NtRp4560
(dp4561
g62
(dp4562
sg71
g4556
sg64
(lp4563
g57
(g58
g59
NtRp4564
(dp4565
g62
(dp4566
g70
I1
ssg71
g4560
sg64
(lp4567
Nasbasbasbag57
(g73
g59
NtRp4568
(dp4569
g62
(dp4570
sg71
g4527
sg64
(lp4571
g57
(g78
g59
NtRp4572
(dp4573
g62
(dp4574
sg71
g4568
sg64
(lp4575
g57
(g58
g59
NtRp4576
(dp4577
g62
(dp4578
g70
I1
ssg71
g4572
sg64
(lp4579
(lp4580
(S'plugin_wiki'
p4581
I00
S'http://web2py.com/examples/default/download'
p4582
tp4583
a(g3969
(S's\r\x00\x00\x00Other Plugins'
tRp4584
I00
g4314
tp4585
a(g3969
(S's\x0e\x00\x00\x00Layout Plugins'
tRp4586
I00
g4317
tp4587
aasbasbasbasbasbasbasbasbasbasbasbasbasbasbasbasbasbasbasbag57
(g73
g59
NtRp4588
(dp4589
g62
(dp4590
sg71
g3435
sg64
(lp4591
g57
(g78
g59
NtRp4592
(dp4593
g62
(dp4594
g82
g83
ssg71
g4588
sg64
(lp4595
S'meta'
p4596
asbag57
(g78
g59
NtRp4597
(dp4598
g62
(dp4599
g89
g90
ssg71
g4588
sg64
(lp4600
S':'
asbag57
(g78
g59
NtRp4601
(dp4602
g62
(dp4603
sg71
g4588
sg64
(lp4604
g57
(g58
g59
NtRp4605
(dp4606
g62
(dp4607
g70
I5
ssg71
g4601
sg64
(lp4608
g57
(g66
g59
NtRp4609
(dp4610
g62
(dp4611
g70
I4
ssg71
Nsg64
(lp4612
g57
(g73
g59
NtRp4613
(dp4614
g62
(dp4615
sg71
g4609
sg64
(lp4616
g57
(g78
g59
NtRp4617
(dp4618
g62
(dp4619
g82
g83
ssg71
g4613
sg64
(lp4620
S'author'
p4621
asbag57
(g78
g59
NtRp4622
(dp4623
g62
(dp4624
g89
g90
ssg71
g4613
sg64
(lp4625
S':'
asbag57
(g78
g59
NtRp4626
(dp4627
g62
(dp4628
sg71
g4613
sg64
(lp4629
g57
(g58
g59
NtRp4630
(dp4631
g62
(dp4632
g70
I4
ssg71
g4626
sg64
(lp4633
S'Your Name <you@example.com>'
p4634
asbasbasbag57
(g73
g59
NtRp4635
(dp4636
g62
(dp4637
sg71
g4609
sg64
(lp4638
g57
(g78
g59
NtRp4639
(dp4640
g62
(dp4641
g82
g83
ssg71
g4635
sg64
(lp4642
S'description'
p4643
asbag57
(g78
g59
NtRp4644
(dp4645
g62
(dp4646
g89
g90
ssg71
g4635
sg64
(lp4647
S':'
asbag57
(g78
g59
NtRp4648
(dp4649
g62
(dp4650
sg71
g4635
sg64
(lp4651
g57
(g58
g59
NtRp4652
(dp4653
g62
(dp4654
g70
I4
ssg71
g4648
sg64
(lp4655
S'a cool new app'
p4656
asbasbasbag57
(g73
g59
NtRp4657
(dp4658
g62
(dp4659
sg71
g4609
sg64
(lp4660
g57
(g78
g59
NtRp4661
(dp4662
g62
(dp4663
g82
g83
ssg71
g4657
sg64
(lp4664
S'generator'
p4665
asbag57
(g78
g59
NtRp4666
(dp4667
g62
(dp4668
g89
g90
ssg71
g4657
sg64
(lp4669
S':'
asbag57
(g78
g59
NtRp4670
(dp4671
g62
(dp4672
sg71
g4657
sg64
(lp4673
g57
(g58
g59
NtRp4674
(dp4675
g62
(dp4676
g70
I4
ssg71
g4670
sg64
(lp4677
S'Web2py Web Framework'
p4678
asbasbasbag57
(g73
g59
NtRp4679
(dp4680
g62
(dp4681
sg71
g4609
sg64
(lp4682
g57
(g78
g59
NtRp4683
(dp4684
g62
(dp4685
g82
g83
ssg71
g4679
sg64
(lp4686
S'keywords'
p4687
asbag57
(g78
g59
NtRp4688
(dp4689
g62
(dp4690
g89
g90
ssg71
g4679
sg64
(lp4691
S':'
asbag57
(g78
g59
NtRp4692
(dp4693
g62
(dp4694
sg71
g4679
sg64
(lp4695
g57
(g58
g59
NtRp4696
(dp4697
g62
(dp4698
g70
I4
ssg71
g4692
sg64
(lp4699
S'web2py, python, framework'
p4700
asbasbasbasbasbasbasbag57
(g73
g59
NtRp4701
(dp4702
g62
(dp4703
sg71
g3435
sg64
(lp4704
g57
(g78
g59
NtRp4705
(dp4706
g62
(dp4707
g82
g83
ssg71
g4701
sg64
(lp4708
S'models_to_run'
p4709
asbag57
(g78
g59
NtRp4710
(dp4711
g62
(dp4712
g89
g90
ssg71
g4701
sg64
(lp4713
S':'
asbag57
(g78
g59
NtRp4714
(dp4715
g62
(dp4716
sg71
g4701
sg64
(lp4717
g57
(g58
g59
NtRp4718
(dp4719
g62
(dp4720
g70
I5
ssg71
g4714
sg64
(lp4721
g57
(g66
g59
NtRp4722
(dp4723
g62
(dp4724
g70
I4
ssg71
Nsg64
(lp4725
g57
(g73
g59
NtRp4726
(dp4727
g62
(dp4728
sg71
g4722
sg64
(lp4729
g57
(g78
g59
NtRp4730
(dp4731
g62
(dp4732
sg71
g4726
sg64
(lp4733
g57
(g58
g59
NtRp4734
(dp4735
g62
(dp4736
g70
I4
ssg71
g4730
sg64
(lp4737
S'^\\w+\\.py$'
p4738
asbasbasbag57
(g73
g59
NtRp4739
(dp4740
g62
(dp4741
sg71
g4722
sg64
(lp4742
g57
(g78
g59
NtRp4743
(dp4744
g62
(dp4745
sg71
g4739
sg64
(lp4746
g57
(g58
g59
NtRp4747
(dp4748
g62
(dp4749
g70
I4
ssg71
g4743
sg64
(lp4750
S'^default/\\w+\\.py$'
p4751
asbasbasbag57
(g73
g59
NtRp4752
(dp4753
g62
(dp4754
sg71
g4722
sg64
(lp4755
g57
(g78
g59
NtRp4756
(dp4757
g62
(dp4758
sg71
g4752
sg64
(lp4759
g57
(g58
g59
NtRp4760
(dp4761
g62
(dp4762
g70
I4
ssg71
g4756
sg64
(lp4763
S'^default/index/\\w+\\.py$'
p4764
asbasbasbasbasbasbasbag57
(g73
g59
NtRp4765
(dp4766
g62
(dp4767
sg71
g3435
sg64
(lp4768
g57
(g78
g59
NtRp4769
(dp4770
g62
(dp4771
g82
g83
ssg71
g4765
sg64
(lp4772
S'postprocessing'
p4773
asbag57
(g78
g59
NtRp4774
(dp4775
g62
(dp4776
g89
g90
ssg71
g4765
sg64
(lp4777
S':'
asbag57
(g78
g59
NtRp4778
(dp4779
g62
(dp4780
sg71
g4765
sg64
(lp4781
g57
(g58
g59
NtRp4782
(dp4783
g62
(dp4784
g70
I5
ssg71
g4778
sg64
(lp4785
g57
(g66
g59
NtRp4786
(dp4787
g62
(dp4788
g70
I4
ssg71
Nsg64
(lp4789
sbasbasbasbag57
(g73
g59
NtRp4790
(dp4791
g62
(dp4792
sg71
g3435
sg64
(lp4793
g57
(g78
g59
NtRp4794
(dp4795
g62
(dp4796
g82
g83
ssg71
g4790
sg64
(lp4797
S'session_cookie_expires'
p4798
asbag57
(g78
g59
NtRp4799
(dp4800
g62
(dp4801
g89
g90
ssg71
g4790
sg64
(lp4802
S':'
asbag57
(g78
g59
NtRp4803
(dp4804
g62
(dp4805
sg71
g4790
sg64
(lp4806
g57
(g58
g59
NtRp4807
(dp4808
g62
(dp4809
g70
I5
ssg71
g4803
sg64
(lp4810
S'None'
p4811
asbasbasbag57
(g73
g59
NtRp4812
(dp4813
g62
(dp4814
sg71
g3435
sg64
(lp4815
g57
(g78
g59
NtRp4816
(dp4817
g62
(dp4818
g82
g83
ssg71
g4812
sg64
(lp4819
S'session_data_name'
p4820
asbag57
(g78
g59
NtRp4821
(dp4822
g62
(dp4823
g89
g90
ssg71
g4812
sg64
(lp4824
S':'
asbag57
(g78
g59
NtRp4825
(dp4826
g62
(dp4827
sg71
g4812
sg64
(lp4828
g57
(g58
g59
NtRp4829
(dp4830
g62
(dp4831
g70
I5
ssg71
g4825
sg64
(lp4832
S'session_data_myapp'
p4833
asbasbasbag57
(g73
g59
NtRp4834
(dp4835
g62
(dp4836
sg71
g3435
sg64
(lp4837
g57
(g78
g59
NtRp4838
(dp4839
g62
(dp4840
g82
g83
ssg71
g4834
sg64
(lp4841
S'session_file'
p4842
asbag57
(g78
g59
NtRp4843
(dp4844
g62
(dp4845
g89
g90
ssg71
g4834
sg64
(lp4846
S':'
asbag57
(g78
g59
NtRp4847
(dp4848
g62
(dp4849
sg71
g4834
sg64
(lp4850
g57
(g58
g59
NtRp4851
(dp4852
g62
(dp4853
g70
I5
ssg71
g4847
sg64
(lp4854
S'None'
p4855
asbasbasbag57
(g73
g59
NtRp4856
(dp4857
g62
(dp4858
sg71
g3435
sg64
(lp4859
g57
(g78
g59
NtRp4860
(dp4861
g62
(dp4862
g82
g83
ssg71
g4856
sg64
(lp4863
S'session_filename'
p4864
asbag57
(g78
g59
NtRp4865
(dp4866
g62
(dp4867
g89
g90
ssg71
g4856
sg64
(lp4868
S':'
asbag57
(g78
g59
NtRp4869
(dp4870
g62
(dp4871
sg71
g4856
sg64
(lp4872
g57
(g58
g59
NtRp4873
(dp4874
g62
(dp4875
g70
I5
ssg71
g4869
sg64
(lp4876
S'D:\\github-develop\\web2py\\applications\\myapp\\sessions\\127.0.0.1-c0952a33-5ab0-41a8-a77e-f43f0e5bde89'
p4877
asbasbasbag57
(g73
g59
NtRp4878
(dp4879
g62
(dp4880
sg71
g3435
sg64
(lp4881
g57
(g78
g59
NtRp4882
(dp4883
g62
(dp4884
g82
g83
ssg71
g4878
sg64
(lp4885
S'session_id'
p4886
asbag57
(g78
g59
NtRp4887
(dp4888
g62
(dp4889
g89
g90
ssg71
g4878
sg64
(lp4890
S':'
asbag57
(g78
g59
NtRp4891
(dp4892
g62
(dp4893
sg71
g4878
sg64
(lp4894
g57
(g58
g59
NtRp4895
(dp4896
g62
(dp4897
g70
I5
ssg71
g4891
sg64
(lp4898
g475
asbasbasbag57
(g73
g59
NtRp4899
(dp4900
g62
(dp4901
sg71
g3435
sg64
(lp4902
g57
(g78
g59
NtRp4903
(dp4904
g62
(dp4905
g82
g83
ssg71
g4899
sg64
(lp4906
S'session_id_name'
p4907
asbag57
(g78
g59
NtRp4908
(dp4909
g62
(dp4910
g89
g90
ssg71
g4899
sg64
(lp4911
S':'
asbag57
(g78
g59
NtRp4912
(dp4913
g62
(dp4914
sg71
g4899
sg64
(lp4915
g57
(g58
g59
NtRp4916
(dp4917
g62
(dp4918
g70
I5
ssg71
g4912
sg64
(lp4919
g3492
asbasbasbag57
(g73
g59
NtRp4920
(dp4921
g62
(dp4922
sg71
g3435
sg64
(lp4923
g57
(g78
g59
NtRp4924
(dp4925
g62
(dp4926
g82
g83
ssg71
g4920
sg64
(lp4927
S'session_new'
p4928
asbag57
(g78
g59
NtRp4929
(dp4930
g62
(dp4931
g89
g90
ssg71
g4920
sg64
(lp4932
S':'
asbag57
(g78
g59
NtRp4933
(dp4934
g62
(dp4935
sg71
g4920
sg64
(lp4936
g57
(g58
g59
NtRp4937
(dp4938
g62
(dp4939
g70
I5
ssg71
g4933
sg64
(lp4940
g100
asbasbasbag57
(g73
g59
NtRp4941
(dp4942
g62
(dp4943
sg71
g3435
sg64
(lp4944
g57
(g78
g59
NtRp4945
(dp4946
g62
(dp4947
g82
g83
ssg71
g4941
sg64
(lp4948
S'session_storage_type'
p4949
asbag57
(g78
g59
NtRp4950
(dp4951
g62
(dp4952
g89
g90
ssg71
g4941
sg64
(lp4953
S':'
asbag57
(g78
g59
NtRp4954
(dp4955
g62
(dp4956
sg71
g4941
sg64
(lp4957
g57
(g58
g59
NtRp4958
(dp4959
g62
(dp4960
g70
I5
ssg71
g4954
sg64
(lp4961
g3343
asbasbasbag57
(g73
g59
NtRp4962
(dp4963
g62
(dp4964
sg71
g3435
sg64
(lp4965
g57
(g78
g59
NtRp4966
(dp4967
g62
(dp4968
g82
g83
ssg71
g4962
sg64
(lp4969
S'status'
p4970
asbag57
(g78
g59
NtRp4971
(dp4972
g62
(dp4973
g89
g90
ssg71
g4962
sg64
(lp4974
S':'
asbag57
(g78
g59
NtRp4975
(dp4976
g62
(dp4977
sg71
g4962
sg64
(lp4978
g57
(g58
g59
NtRp4979
(dp4980
g62
(dp4981
g70
I5
ssg71
g4975
sg64
(lp4982
S'200'
p4983
asbasbasbag57
(g73
g59
NtRp4984
(dp4985
g62
(dp4986
sg71
g3435
sg64
(lp4987
g57
(g78
g59
NtRp4988
(dp4989
g62
(dp4990
g82
g83
ssg71
g4984
sg64
(lp4991
S'subtitle'
p4992
asbag57
(g78
g59
NtRp4993
(dp4994
g62
(dp4995
g89
g90
ssg71
g4984
sg64
(lp4996
S':'
asbag57
(g78
g59
NtRp4997
(dp4998
g62
(dp4999
sg71
g4984
sg64
(lp5000
g57
(g58
g59
NtRp5001
(dp5002
g62
(dp5003
g70
I5
ssg71
g4997
sg64
(lp5004
g3969
(S's)\x00\x00\x00\xd0\xbd\xd0\xb0\xd1\x81\xd1\x82\xd1\x80\xd0\xbe\xd0\xb9\xd1\x82\xd0\xb5 \xd0\xb2\xd0\xbd\xd0\xb5\xd1\x88\xd0\xbd\xd0\xb8\xd0\xb9 \xd0\xb2\xd0\xb8\xd0\xb4!'
tRp5005
asbasbasbag57
(g73
g59
NtRp5006
(dp5007
g62
(dp5008
sg71
g3435
sg64
(lp5009
g57
(g78
g59
NtRp5010
(dp5011
g62
(dp5012
g82
g83
ssg71
g5006
sg64
(lp5013
S'title'
p5014
asbag57
(g78
g59
NtRp5015
(dp5016
g62
(dp5017
g89
g90
ssg71
g5006
sg64
(lp5018
S':'
asbag57
(g78
g59
NtRp5019
(dp5020
g62
(dp5021
sg71
g5006
sg64
(lp5022
g57
(g58
g59
NtRp5023
(dp5024
g62
(dp5025
g70
I5
ssg71
g5019
sg64
(lp5026
S'Myapp'
p5027
asbasbasbag57
(g73
g59
NtRp5028
(dp5029
g62
(dp5030
sg71
g3435
sg64
(lp5031
g57
(g78
g59
NtRp5032
(dp5033
g62
(dp5034
g82
g83
ssg71
g5028
sg64
(lp5035
S'view'
p5036
asbag57
(g78
g59
NtRp5037
(dp5038
g62
(dp5039
g89
g90
ssg71
g5028
sg64
(lp5040
S':'
asbag57
(g78
g59
NtRp5041
(dp5042
g62
(dp5043
sg71
g5028
sg64
(lp5044
g57
(g58
g59
NtRp5045
(dp5046
g62
(dp5047
g70
I5
ssg71
g5041
sg64
(lp5048
S'default/index.html'
p5049
asbasbasbasbasbsS'locals'
p5050
(dp5051
ssS'traceback'
p5052
S'Traceback (most recent call last):\n  File "D:\\github-develop\\web2py\\gluon\\restricted.py", line 212, in restricted\n    exec ccode in environment\n  File "D:\\github-develop\\web2py\\applications\\myapp\\controllers/default.py", line 79, in <module>\n  File "D:\\github-develop\\web2py\\gluon\\globals.py", line 193, in <lambda>\n    self._caller = lambda f: f()\n  File "D:\\github-develop\\web2py\\applications\\myapp\\controllers/default.py", line 14, in index\n    return "Your ip is " + test.tt\nAttributeError: \'module\' object has no attribute \'tt\'\n'
p5053
s.